(dp0
S'path'
p1
S'Raimundos  mulher de fases.mp3'
p2
sS'parts'
p3
(lp4
(ipart
Part
p5
(dp6
S'_Part__path'
p7
S'1683ff38af35df750fa7928447db9ec8/455a0e1455d2cc455d2c632aed6c94fc.part'
p8
sS'_Part__hash'
p9
S'455a0e1455d2cc455d2c632aed6c94fc'
p10
sS'_Part__index'
p11
L524288L
sba(ipart
Part
p12
(dp13
g7
S'1683ff38af35df750fa7928447db9ec8/0029b09e0bb15e51001ff11c6bf83f09.part'
p14
sg9
S'0029b09e0bb15e51001ff11c6bf83f09'
p15
sg11
L1048576L
sba(ipart
Part
p16
(dp17
g7
S'1683ff38af35df750fa7928447db9ec8/28a27bf3ca3e2b2e38157eb6bc609a0e.part'
p18
sg9
S'28a27bf3ca3e2b2e38157eb6bc609a0e'
p19
sg11
L1572864L
sba(ipart
Part
p20
(dp21
g7
S'1683ff38af35df750fa7928447db9ec8/fabffd74f296d0c1c3cfcbcb7d43bd66.part'
p22
sg9
S'fabffd74f296d0c1c3cfcbcb7d43bd66'
p23
sg11
L2097152L
sba(ipart
Part
p24
(dp25
g7
S'1683ff38af35df750fa7928447db9ec8/6a81a2f1b03c16207509ec5356dfa684.part'
p26
sg9
S'6a81a2f1b03c16207509ec5356dfa684'
p27
sg11
L2621440L
sba(ipart
Part
p28
(dp29
g7
S'1683ff38af35df750fa7928447db9ec8/61fa31b396272e477d96854786cfa61d.part'
p30
sg9
S'61fa31b396272e477d96854786cfa61d'
p31
sg11
L3145728L
sba(ipart
Part
p32
(dp33
g7
S'1683ff38af35df750fa7928447db9ec8/a364584db2236783e28b93115615a4e0.part'
p34
sg9
S'a364584db2236783e28b93115615a4e0'
p35
sg11
L3369489L
sba(ipart
Part
p36
(dp37
g7
S'1683ff38af35df750fa7928447db9ec8/455a0e1455d2cc455d2c632aed6c94fc.part'
p38
sg9
S'455a0e1455d2cc455d2c632aed6c94fc'
p39
sg11
L524288L
sba(ipart
Part
p40
(dp41
g7
S'1683ff38af35df750fa7928447db9ec8/0029b09e0bb15e51001ff11c6bf83f09.part'
p42
sg9
S'0029b09e0bb15e51001ff11c6bf83f09'
p43
sg11
L1048576L
sba(ipart
Part
p44
(dp45
g7
S'1683ff38af35df750fa7928447db9ec8/28a27bf3ca3e2b2e38157eb6bc609a0e.part'
p46
sg9
S'28a27bf3ca3e2b2e38157eb6bc609a0e'
p47
sg11
L1572864L
sba(ipart
Part
p48
(dp49
g7
S'1683ff38af35df750fa7928447db9ec8/fabffd74f296d0c1c3cfcbcb7d43bd66.part'
p50
sg9
S'fabffd74f296d0c1c3cfcbcb7d43bd66'
p51
sg11
L2097152L
sba(ipart
Part
p52
(dp53
g7
S'1683ff38af35df750fa7928447db9ec8/6a81a2f1b03c16207509ec5356dfa684.part'
p54
sg9
S'6a81a2f1b03c16207509ec5356dfa684'
p55
sg11
L2621440L
sba(ipart
Part
p56
(dp57
g7
S'1683ff38af35df750fa7928447db9ec8/61fa31b396272e477d96854786cfa61d.part'
p58
sg9
S'61fa31b396272e477d96854786cfa61d'
p59
sg11
L3145728L
sba(ipart
Part
p60
(dp61
g7
S'1683ff38af35df750fa7928447db9ec8/a364584db2236783e28b93115615a4e0.part'
p62
sg9
S'a364584db2236783e28b93115615a4e0'
p63
sg11
L3369489L
sbasS'hash'
p64
S'1683ff38af35df750fa7928447db9ec8'
p65
s.