(dp0
S'path'
p1
S'Raimundos  mulher de fases.mp3'
p2
sS'parts'
p3
(lp4
(ipart
Part
p5
(dp6
S'_Part__path'
p7
S'1683ff38af35df750fa7928447db9ec8/455a0e1455d2cc455d2c632aed6c94fc.part'
p8
sS'_Part__hash'
p9
S'455a0e1455d2cc455d2c632aed6c94fc'
p10
sS'_Part__index'
p11
L524288L
sba(ipart
Part
p12
(dp13
g7
S'1683ff38af35df750fa7928447db9ec8/0029b09e0bb15e51001ff11c6bf83f09.part'
p14
sg9
S'0029b09e0bb15e51001ff11c6bf83f09'
p15
sg11
L1048576L
sba(ipart
Part
p16
(dp17
g7
S'1683ff38af35df750fa7928447db9ec8/28a27bf3ca3e2b2e38157eb6bc609a0e.part'
p18
sg9
S'28a27bf3ca3e2b2e38157eb6bc609a0e'
p19
sg11
L1572864L
sba(ipart
Part
p20
(dp21
g7
S'1683ff38af35df750fa7928447db9ec8/fabffd74f296d0c1c3cfcbcb7d43bd66.part'
p22
sg9
S'fabffd74f296d0c1c3cfcbcb7d43bd66'
p23
sg11
L2097152L
sba(ipart
Part
p24
(dp25
g7
S'1683ff38af35df750fa7928447db9ec8/6a81a2f1b03c16207509ec5356dfa684.part'
p26
sg9
S'6a81a2f1b03c16207509ec5356dfa684'
p27
sg11
L2621440L
sba(ipart
Part
p28
(dp29
g7
S'1683ff38af35df750fa7928447db9ec8/61fa31b396272e477d96854786cfa61d.part'
p30
sg9
S'61fa31b396272e477d96854786cfa61d'
p31
sg11
L3145728L
sba(ipart
Part
p32
(dp33
g7
S'1683ff38af35df750fa7928447db9ec8/a364584db2236783e28b93115615a4e0.part'
p34
sg9
S'a364584db2236783e28b93115615a4e0'
p35
sg11
L3369489L
sba(ipart
Part
p36
(dp37
g7
S'1683ff38af35df750fa7928447db9ec8/455a0e1455d2cc455d2c632aed6c94fc.part'
p38
sg9
S'455a0e1455d2cc455d2c632aed6c94fc'
p39
sg11
L524288L
sba(ipart
Part
p40
(dp41
g7
S'1683ff38af35df750fa7928447db9ec8/0029b09e0bb15e51001ff11c6bf83f09.part'
p42
sg9
S'0029b09e0bb15e51001ff11c6bf83f09'
p43
sg11
L1048576L
sba(ipart
Part
p44
(dp45
g7
S'1683ff38af35df750fa7928447db9ec8/28a27bf3ca3e2b2e38157eb6bc609a0e.part'
p46
sg9
S'28a27bf3ca3e2b2e38157eb6bc609a0e'
p47
sg11
L1572864L
sba(ipart
Part
p48
(dp49
g7
S'1683ff38af35df750fa7928447db9ec8/fabffd74f296d0c1c3cfcbcb7d43bd66.part'
p50
sg9
S'fabffd74f296d0c1c3cfcbcb7d43bd66'
p51
sg11
L2097152L
sba(ipart
Part
p52
(dp53
g7
S'1683ff38af35df750fa7928447db9ec8/6a81a2f1b03c16207509ec5356dfa684.part'
p54
sg9
S'6a81a2f1b03c16207509ec5356dfa684'
p55
sg11
L2621440L
sba(ipart
Part
p56
(dp57
g7
S'1683ff38af35df750fa7928447db9ec8/61fa31b396272e477d96854786cfa61d.part'
p58
sg9
S'61fa31b396272e477d96854786cfa61d'
p59
sg11
L3145728L
sba(ipart
Part
p60
(dp61
g7
S'1683ff38af35df750fa7928447db9ec8/a364584db2236783e28b93115615a4e0.part'
p62
sg9
S'a364584db2236783e28b93115615a4e0'
p63
sg11
L3369489L
sba(ipart
Part
p64
(dp65
g7
S'1683ff38af35df750fa7928447db9ec8/455a0e1455d2cc455d2c632aed6c94fc.part'
p66
sg9
S'455a0e1455d2cc455d2c632aed6c94fc'
p67
sg11
L524288L
sba(ipart
Part
p68
(dp69
g7
S'1683ff38af35df750fa7928447db9ec8/0029b09e0bb15e51001ff11c6bf83f09.part'
p70
sg9
S'0029b09e0bb15e51001ff11c6bf83f09'
p71
sg11
L1048576L
sba(ipart
Part
p72
(dp73
g7
S'1683ff38af35df750fa7928447db9ec8/28a27bf3ca3e2b2e38157eb6bc609a0e.part'
p74
sg9
S'28a27bf3ca3e2b2e38157eb6bc609a0e'
p75
sg11
L1572864L
sba(ipart
Part
p76
(dp77
g7
S'1683ff38af35df750fa7928447db9ec8/fabffd74f296d0c1c3cfcbcb7d43bd66.part'
p78
sg9
S'fabffd74f296d0c1c3cfcbcb7d43bd66'
p79
sg11
L2097152L
sba(ipart
Part
p80
(dp81
g7
S'1683ff38af35df750fa7928447db9ec8/6a81a2f1b03c16207509ec5356dfa684.part'
p82
sg9
S'6a81a2f1b03c16207509ec5356dfa684'
p83
sg11
L2621440L
sba(ipart
Part
p84
(dp85
g7
S'1683ff38af35df750fa7928447db9ec8/61fa31b396272e477d96854786cfa61d.part'
p86
sg9
S'61fa31b396272e477d96854786cfa61d'
p87
sg11
L3145728L
sba(ipart
Part
p88
(dp89
g7
S'1683ff38af35df750fa7928447db9ec8/a364584db2236783e28b93115615a4e0.part'
p90
sg9
S'a364584db2236783e28b93115615a4e0'
p91
sg11
L3369489L
sba(ipart
Part
p92
(dp93
g7
S'1683ff38af35df750fa7928447db9ec8/455a0e1455d2cc455d2c632aed6c94fc.part'
p94
sg9
S'455a0e1455d2cc455d2c632aed6c94fc'
p95
sg11
L524288L
sba(ipart
Part
p96
(dp97
g7
S'1683ff38af35df750fa7928447db9ec8/0029b09e0bb15e51001ff11c6bf83f09.part'
p98
sg9
S'0029b09e0bb15e51001ff11c6bf83f09'
p99
sg11
L1048576L
sba(ipart
Part
p100
(dp101
g7
S'1683ff38af35df750fa7928447db9ec8/28a27bf3ca3e2b2e38157eb6bc609a0e.part'
p102
sg9
S'28a27bf3ca3e2b2e38157eb6bc609a0e'
p103
sg11
L1572864L
sba(ipart
Part
p104
(dp105
g7
S'1683ff38af35df750fa7928447db9ec8/fabffd74f296d0c1c3cfcbcb7d43bd66.part'
p106
sg9
S'fabffd74f296d0c1c3cfcbcb7d43bd66'
p107
sg11
L2097152L
sba(ipart
Part
p108
(dp109
g7
S'1683ff38af35df750fa7928447db9ec8/6a81a2f1b03c16207509ec5356dfa684.part'
p110
sg9
S'6a81a2f1b03c16207509ec5356dfa684'
p111
sg11
L2621440L
sba(ipart
Part
p112
(dp113
g7
S'1683ff38af35df750fa7928447db9ec8/61fa31b396272e477d96854786cfa61d.part'
p114
sg9
S'61fa31b396272e477d96854786cfa61d'
p115
sg11
L3145728L
sba(ipart
Part
p116
(dp117
g7
S'1683ff38af35df750fa7928447db9ec8/a364584db2236783e28b93115615a4e0.part'
p118
sg9
S'a364584db2236783e28b93115615a4e0'
p119
sg11
L3369489L
sba(ipart
Part
p120
(dp121
g7
S'1683ff38af35df750fa7928447db9ec8/455a0e1455d2cc455d2c632aed6c94fc.part'
p122
sg9
S'455a0e1455d2cc455d2c632aed6c94fc'
p123
sg11
L524288L
sba(ipart
Part
p124
(dp125
g7
S'1683ff38af35df750fa7928447db9ec8/0029b09e0bb15e51001ff11c6bf83f09.part'
p126
sg9
S'0029b09e0bb15e51001ff11c6bf83f09'
p127
sg11
L1048576L
sba(ipart
Part
p128
(dp129
g7
S'1683ff38af35df750fa7928447db9ec8/28a27bf3ca3e2b2e38157eb6bc609a0e.part'
p130
sg9
S'28a27bf3ca3e2b2e38157eb6bc609a0e'
p131
sg11
L1572864L
sba(ipart
Part
p132
(dp133
g7
S'1683ff38af35df750fa7928447db9ec8/fabffd74f296d0c1c3cfcbcb7d43bd66.part'
p134
sg9
S'fabffd74f296d0c1c3cfcbcb7d43bd66'
p135
sg11
L2097152L
sba(ipart
Part
p136
(dp137
g7
S'1683ff38af35df750fa7928447db9ec8/6a81a2f1b03c16207509ec5356dfa684.part'
p138
sg9
S'6a81a2f1b03c16207509ec5356dfa684'
p139
sg11
L2621440L
sba(ipart
Part
p140
(dp141
g7
S'1683ff38af35df750fa7928447db9ec8/61fa31b396272e477d96854786cfa61d.part'
p142
sg9
S'61fa31b396272e477d96854786cfa61d'
p143
sg11
L3145728L
sba(ipart
Part
p144
(dp145
g7
S'1683ff38af35df750fa7928447db9ec8/a364584db2236783e28b93115615a4e0.part'
p146
sg9
S'a364584db2236783e28b93115615a4e0'
p147
sg11
L3369489L
sba(ipart
Part
p148
(dp149
g7
S'1683ff38af35df750fa7928447db9ec8/455a0e1455d2cc455d2c632aed6c94fc.part'
p150
sg9
S'455a0e1455d2cc455d2c632aed6c94fc'
p151
sg11
L524288L
sba(ipart
Part
p152
(dp153
g7
S'1683ff38af35df750fa7928447db9ec8/0029b09e0bb15e51001ff11c6bf83f09.part'
p154
sg9
S'0029b09e0bb15e51001ff11c6bf83f09'
p155
sg11
L1048576L
sba(ipart
Part
p156
(dp157
g7
S'1683ff38af35df750fa7928447db9ec8/28a27bf3ca3e2b2e38157eb6bc609a0e.part'
p158
sg9
S'28a27bf3ca3e2b2e38157eb6bc609a0e'
p159
sg11
L1572864L
sba(ipart
Part
p160
(dp161
g7
S'1683ff38af35df750fa7928447db9ec8/fabffd74f296d0c1c3cfcbcb7d43bd66.part'
p162
sg9
S'fabffd74f296d0c1c3cfcbcb7d43bd66'
p163
sg11
L2097152L
sba(ipart
Part
p164
(dp165
g7
S'1683ff38af35df750fa7928447db9ec8/6a81a2f1b03c16207509ec5356dfa684.part'
p166
sg9
S'6a81a2f1b03c16207509ec5356dfa684'
p167
sg11
L2621440L
sba(ipart
Part
p168
(dp169
g7
S'1683ff38af35df750fa7928447db9ec8/61fa31b396272e477d96854786cfa61d.part'
p170
sg9
S'61fa31b396272e477d96854786cfa61d'
p171
sg11
L3145728L
sba(ipart
Part
p172
(dp173
g7
S'1683ff38af35df750fa7928447db9ec8/a364584db2236783e28b93115615a4e0.part'
p174
sg9
S'a364584db2236783e28b93115615a4e0'
p175
sg11
L3369489L
sba(ipart
Part
p176
(dp177
g7
S'1683ff38af35df750fa7928447db9ec8/455a0e1455d2cc455d2c632aed6c94fc.part'
p178
sg9
S'455a0e1455d2cc455d2c632aed6c94fc'
p179
sg11
L524288L
sba(ipart
Part
p180
(dp181
g7
S'1683ff38af35df750fa7928447db9ec8/0029b09e0bb15e51001ff11c6bf83f09.part'
p182
sg9
S'0029b09e0bb15e51001ff11c6bf83f09'
p183
sg11
L1048576L
sba(ipart
Part
p184
(dp185
g7
S'1683ff38af35df750fa7928447db9ec8/28a27bf3ca3e2b2e38157eb6bc609a0e.part'
p186
sg9
S'28a27bf3ca3e2b2e38157eb6bc609a0e'
p187
sg11
L1572864L
sba(ipart
Part
p188
(dp189
g7
S'1683ff38af35df750fa7928447db9ec8/fabffd74f296d0c1c3cfcbcb7d43bd66.part'
p190
sg9
S'fabffd74f296d0c1c3cfcbcb7d43bd66'
p191
sg11
L2097152L
sba(ipart
Part
p192
(dp193
g7
S'1683ff38af35df750fa7928447db9ec8/6a81a2f1b03c16207509ec5356dfa684.part'
p194
sg9
S'6a81a2f1b03c16207509ec5356dfa684'
p195
sg11
L2621440L
sba(ipart
Part
p196
(dp197
g7
S'1683ff38af35df750fa7928447db9ec8/61fa31b396272e477d96854786cfa61d.part'
p198
sg9
S'61fa31b396272e477d96854786cfa61d'
p199
sg11
L3145728L
sba(ipart
Part
p200
(dp201
g7
S'1683ff38af35df750fa7928447db9ec8/a364584db2236783e28b93115615a4e0.part'
p202
sg9
S'a364584db2236783e28b93115615a4e0'
p203
sg11
L3369489L
sba(ipart
Part
p204
(dp205
g7
S'1683ff38af35df750fa7928447db9ec8/455a0e1455d2cc455d2c632aed6c94fc.part'
p206
sg9
S'455a0e1455d2cc455d2c632aed6c94fc'
p207
sg11
L524288L
sba(ipart
Part
p208
(dp209
g7
S'1683ff38af35df750fa7928447db9ec8/0029b09e0bb15e51001ff11c6bf83f09.part'
p210
sg9
S'0029b09e0bb15e51001ff11c6bf83f09'
p211
sg11
L1048576L
sba(ipart
Part
p212
(dp213
g7
S'1683ff38af35df750fa7928447db9ec8/28a27bf3ca3e2b2e38157eb6bc609a0e.part'
p214
sg9
S'28a27bf3ca3e2b2e38157eb6bc609a0e'
p215
sg11
L1572864L
sba(ipart
Part
p216
(dp217
g7
S'1683ff38af35df750fa7928447db9ec8/fabffd74f296d0c1c3cfcbcb7d43bd66.part'
p218
sg9
S'fabffd74f296d0c1c3cfcbcb7d43bd66'
p219
sg11
L2097152L
sba(ipart
Part
p220
(dp221
g7
S'1683ff38af35df750fa7928447db9ec8/6a81a2f1b03c16207509ec5356dfa684.part'
p222
sg9
S'6a81a2f1b03c16207509ec5356dfa684'
p223
sg11
L2621440L
sba(ipart
Part
p224
(dp225
g7
S'1683ff38af35df750fa7928447db9ec8/61fa31b396272e477d96854786cfa61d.part'
p226
sg9
S'61fa31b396272e477d96854786cfa61d'
p227
sg11
L3145728L
sba(ipart
Part
p228
(dp229
g7
S'1683ff38af35df750fa7928447db9ec8/a364584db2236783e28b93115615a4e0.part'
p230
sg9
S'a364584db2236783e28b93115615a4e0'
p231
sg11
L3369489L
sba(ipart
Part
p232
(dp233
g7
S'1683ff38af35df750fa7928447db9ec8/455a0e1455d2cc455d2c632aed6c94fc.part'
p234
sg9
S'455a0e1455d2cc455d2c632aed6c94fc'
p235
sg11
L524288L
sba(ipart
Part
p236
(dp237
g7
S'1683ff38af35df750fa7928447db9ec8/0029b09e0bb15e51001ff11c6bf83f09.part'
p238
sg9
S'0029b09e0bb15e51001ff11c6bf83f09'
p239
sg11
L1048576L
sba(ipart
Part
p240
(dp241
g7
S'1683ff38af35df750fa7928447db9ec8/28a27bf3ca3e2b2e38157eb6bc609a0e.part'
p242
sg9
S'28a27bf3ca3e2b2e38157eb6bc609a0e'
p243
sg11
L1572864L
sba(ipart
Part
p244
(dp245
g7
S'1683ff38af35df750fa7928447db9ec8/fabffd74f296d0c1c3cfcbcb7d43bd66.part'
p246
sg9
S'fabffd74f296d0c1c3cfcbcb7d43bd66'
p247
sg11
L2097152L
sba(ipart
Part
p248
(dp249
g7
S'1683ff38af35df750fa7928447db9ec8/6a81a2f1b03c16207509ec5356dfa684.part'
p250
sg9
S'6a81a2f1b03c16207509ec5356dfa684'
p251
sg11
L2621440L
sba(ipart
Part
p252
(dp253
g7
S'1683ff38af35df750fa7928447db9ec8/61fa31b396272e477d96854786cfa61d.part'
p254
sg9
S'61fa31b396272e477d96854786cfa61d'
p255
sg11
L3145728L
sba(ipart
Part
p256
(dp257
g7
S'1683ff38af35df750fa7928447db9ec8/a364584db2236783e28b93115615a4e0.part'
p258
sg9
S'a364584db2236783e28b93115615a4e0'
p259
sg11
L3369489L
sba(ipart
Part
p260
(dp261
g7
S'1683ff38af35df750fa7928447db9ec8/455a0e1455d2cc455d2c632aed6c94fc.part'
p262
sg9
S'455a0e1455d2cc455d2c632aed6c94fc'
p263
sg11
L524288L
sba(ipart
Part
p264
(dp265
g7
S'1683ff38af35df750fa7928447db9ec8/0029b09e0bb15e51001ff11c6bf83f09.part'
p266
sg9
S'0029b09e0bb15e51001ff11c6bf83f09'
p267
sg11
L1048576L
sba(ipart
Part
p268
(dp269
g7
S'1683ff38af35df750fa7928447db9ec8/28a27bf3ca3e2b2e38157eb6bc609a0e.part'
p270
sg9
S'28a27bf3ca3e2b2e38157eb6bc609a0e'
p271
sg11
L1572864L
sba(ipart
Part
p272
(dp273
g7
S'1683ff38af35df750fa7928447db9ec8/fabffd74f296d0c1c3cfcbcb7d43bd66.part'
p274
sg9
S'fabffd74f296d0c1c3cfcbcb7d43bd66'
p275
sg11
L2097152L
sba(ipart
Part
p276
(dp277
g7
S'1683ff38af35df750fa7928447db9ec8/6a81a2f1b03c16207509ec5356dfa684.part'
p278
sg9
S'6a81a2f1b03c16207509ec5356dfa684'
p279
sg11
L2621440L
sba(ipart
Part
p280
(dp281
g7
S'1683ff38af35df750fa7928447db9ec8/61fa31b396272e477d96854786cfa61d.part'
p282
sg9
S'61fa31b396272e477d96854786cfa61d'
p283
sg11
L3145728L
sba(ipart
Part
p284
(dp285
g7
S'1683ff38af35df750fa7928447db9ec8/a364584db2236783e28b93115615a4e0.part'
p286
sg9
S'a364584db2236783e28b93115615a4e0'
p287
sg11
L3369489L
sba(ipart
Part
p288
(dp289
g7
S'1683ff38af35df750fa7928447db9ec8/455a0e1455d2cc455d2c632aed6c94fc.part'
p290
sg9
S'455a0e1455d2cc455d2c632aed6c94fc'
p291
sg11
L524288L
sba(ipart
Part
p292
(dp293
g7
S'1683ff38af35df750fa7928447db9ec8/0029b09e0bb15e51001ff11c6bf83f09.part'
p294
sg9
S'0029b09e0bb15e51001ff11c6bf83f09'
p295
sg11
L1048576L
sba(ipart
Part
p296
(dp297
g7
S'1683ff38af35df750fa7928447db9ec8/28a27bf3ca3e2b2e38157eb6bc609a0e.part'
p298
sg9
S'28a27bf3ca3e2b2e38157eb6bc609a0e'
p299
sg11
L1572864L
sba(ipart
Part
p300
(dp301
g7
S'1683ff38af35df750fa7928447db9ec8/fabffd74f296d0c1c3cfcbcb7d43bd66.part'
p302
sg9
S'fabffd74f296d0c1c3cfcbcb7d43bd66'
p303
sg11
L2097152L
sba(ipart
Part
p304
(dp305
g7
S'1683ff38af35df750fa7928447db9ec8/6a81a2f1b03c16207509ec5356dfa684.part'
p306
sg9
S'6a81a2f1b03c16207509ec5356dfa684'
p307
sg11
L2621440L
sba(ipart
Part
p308
(dp309
g7
S'1683ff38af35df750fa7928447db9ec8/61fa31b396272e477d96854786cfa61d.part'
p310
sg9
S'61fa31b396272e477d96854786cfa61d'
p311
sg11
L3145728L
sba(ipart
Part
p312
(dp313
g7
S'1683ff38af35df750fa7928447db9ec8/a364584db2236783e28b93115615a4e0.part'
p314
sg9
S'a364584db2236783e28b93115615a4e0'
p315
sg11
L3369489L
sba(ipart
Part
p316
(dp317
g7
S'1683ff38af35df750fa7928447db9ec8/455a0e1455d2cc455d2c632aed6c94fc.part'
p318
sg9
S'455a0e1455d2cc455d2c632aed6c94fc'
p319
sg11
L524288L
sba(ipart
Part
p320
(dp321
g7
S'1683ff38af35df750fa7928447db9ec8/0029b09e0bb15e51001ff11c6bf83f09.part'
p322
sg9
S'0029b09e0bb15e51001ff11c6bf83f09'
p323
sg11
L1048576L
sba(ipart
Part
p324
(dp325
g7
S'1683ff38af35df750fa7928447db9ec8/28a27bf3ca3e2b2e38157eb6bc609a0e.part'
p326
sg9
S'28a27bf3ca3e2b2e38157eb6bc609a0e'
p327
sg11
L1572864L
sba(ipart
Part
p328
(dp329
g7
S'1683ff38af35df750fa7928447db9ec8/fabffd74f296d0c1c3cfcbcb7d43bd66.part'
p330
sg9
S'fabffd74f296d0c1c3cfcbcb7d43bd66'
p331
sg11
L2097152L
sba(ipart
Part
p332
(dp333
g7
S'1683ff38af35df750fa7928447db9ec8/6a81a2f1b03c16207509ec5356dfa684.part'
p334
sg9
S'6a81a2f1b03c16207509ec5356dfa684'
p335
sg11
L2621440L
sba(ipart
Part
p336
(dp337
g7
S'1683ff38af35df750fa7928447db9ec8/61fa31b396272e477d96854786cfa61d.part'
p338
sg9
S'61fa31b396272e477d96854786cfa61d'
p339
sg11
L3145728L
sba(ipart
Part
p340
(dp341
g7
S'1683ff38af35df750fa7928447db9ec8/a364584db2236783e28b93115615a4e0.part'
p342
sg9
S'a364584db2236783e28b93115615a4e0'
p343
sg11
L3369489L
sba(ipart
Part
p344
(dp345
g7
S'1683ff38af35df750fa7928447db9ec8/455a0e1455d2cc455d2c632aed6c94fc.part'
p346
sg9
S'455a0e1455d2cc455d2c632aed6c94fc'
p347
sg11
L524288L
sba(ipart
Part
p348
(dp349
g7
S'1683ff38af35df750fa7928447db9ec8/0029b09e0bb15e51001ff11c6bf83f09.part'
p350
sg9
S'0029b09e0bb15e51001ff11c6bf83f09'
p351
sg11
L1048576L
sba(ipart
Part
p352
(dp353
g7
S'1683ff38af35df750fa7928447db9ec8/28a27bf3ca3e2b2e38157eb6bc609a0e.part'
p354
sg9
S'28a27bf3ca3e2b2e38157eb6bc609a0e'
p355
sg11
L1572864L
sba(ipart
Part
p356
(dp357
g7
S'1683ff38af35df750fa7928447db9ec8/fabffd74f296d0c1c3cfcbcb7d43bd66.part'
p358
sg9
S'fabffd74f296d0c1c3cfcbcb7d43bd66'
p359
sg11
L2097152L
sba(ipart
Part
p360
(dp361
g7
S'1683ff38af35df750fa7928447db9ec8/6a81a2f1b03c16207509ec5356dfa684.part'
p362
sg9
S'6a81a2f1b03c16207509ec5356dfa684'
p363
sg11
L2621440L
sba(ipart
Part
p364
(dp365
g7
S'1683ff38af35df750fa7928447db9ec8/61fa31b396272e477d96854786cfa61d.part'
p366
sg9
S'61fa31b396272e477d96854786cfa61d'
p367
sg11
L3145728L
sba(ipart
Part
p368
(dp369
g7
S'1683ff38af35df750fa7928447db9ec8/a364584db2236783e28b93115615a4e0.part'
p370
sg9
S'a364584db2236783e28b93115615a4e0'
p371
sg11
L3369489L
sba(ipart
Part
p372
(dp373
g7
S'1683ff38af35df750fa7928447db9ec8/455a0e1455d2cc455d2c632aed6c94fc.part'
p374
sg9
S'455a0e1455d2cc455d2c632aed6c94fc'
p375
sg11
L524288L
sba(ipart
Part
p376
(dp377
g7
S'1683ff38af35df750fa7928447db9ec8/0029b09e0bb15e51001ff11c6bf83f09.part'
p378
sg9
S'0029b09e0bb15e51001ff11c6bf83f09'
p379
sg11
L1048576L
sba(ipart
Part
p380
(dp381
g7
S'1683ff38af35df750fa7928447db9ec8/28a27bf3ca3e2b2e38157eb6bc609a0e.part'
p382
sg9
S'28a27bf3ca3e2b2e38157eb6bc609a0e'
p383
sg11
L1572864L
sba(ipart
Part
p384
(dp385
g7
S'1683ff38af35df750fa7928447db9ec8/fabffd74f296d0c1c3cfcbcb7d43bd66.part'
p386
sg9
S'fabffd74f296d0c1c3cfcbcb7d43bd66'
p387
sg11
L2097152L
sba(ipart
Part
p388
(dp389
g7
S'1683ff38af35df750fa7928447db9ec8/6a81a2f1b03c16207509ec5356dfa684.part'
p390
sg9
S'6a81a2f1b03c16207509ec5356dfa684'
p391
sg11
L2621440L
sba(ipart
Part
p392
(dp393
g7
S'1683ff38af35df750fa7928447db9ec8/61fa31b396272e477d96854786cfa61d.part'
p394
sg9
S'61fa31b396272e477d96854786cfa61d'
p395
sg11
L3145728L
sba(ipart
Part
p396
(dp397
g7
S'1683ff38af35df750fa7928447db9ec8/a364584db2236783e28b93115615a4e0.part'
p398
sg9
S'a364584db2236783e28b93115615a4e0'
p399
sg11
L3369489L
sba(ipart
Part
p400
(dp401
g7
S'1683ff38af35df750fa7928447db9ec8/455a0e1455d2cc455d2c632aed6c94fc.part'
p402
sg9
S'455a0e1455d2cc455d2c632aed6c94fc'
p403
sg11
L524288L
sba(ipart
Part
p404
(dp405
g7
S'1683ff38af35df750fa7928447db9ec8/0029b09e0bb15e51001ff11c6bf83f09.part'
p406
sg9
S'0029b09e0bb15e51001ff11c6bf83f09'
p407
sg11
L1048576L
sba(ipart
Part
p408
(dp409
g7
S'1683ff38af35df750fa7928447db9ec8/28a27bf3ca3e2b2e38157eb6bc609a0e.part'
p410
sg9
S'28a27bf3ca3e2b2e38157eb6bc609a0e'
p411
sg11
L1572864L
sba(ipart
Part
p412
(dp413
g7
S'1683ff38af35df750fa7928447db9ec8/fabffd74f296d0c1c3cfcbcb7d43bd66.part'
p414
sg9
S'fabffd74f296d0c1c3cfcbcb7d43bd66'
p415
sg11
L2097152L
sba(ipart
Part
p416
(dp417
g7
S'1683ff38af35df750fa7928447db9ec8/6a81a2f1b03c16207509ec5356dfa684.part'
p418
sg9
S'6a81a2f1b03c16207509ec5356dfa684'
p419
sg11
L2621440L
sba(ipart
Part
p420
(dp421
g7
S'1683ff38af35df750fa7928447db9ec8/61fa31b396272e477d96854786cfa61d.part'
p422
sg9
S'61fa31b396272e477d96854786cfa61d'
p423
sg11
L3145728L
sba(ipart
Part
p424
(dp425
g7
S'1683ff38af35df750fa7928447db9ec8/a364584db2236783e28b93115615a4e0.part'
p426
sg9
S'a364584db2236783e28b93115615a4e0'
p427
sg11
L3369489L
sba(ipart
Part
p428
(dp429
g7
S'1683ff38af35df750fa7928447db9ec8/455a0e1455d2cc455d2c632aed6c94fc.part'
p430
sg9
S'455a0e1455d2cc455d2c632aed6c94fc'
p431
sg11
L524288L
sba(ipart
Part
p432
(dp433
g7
S'1683ff38af35df750fa7928447db9ec8/0029b09e0bb15e51001ff11c6bf83f09.part'
p434
sg9
S'0029b09e0bb15e51001ff11c6bf83f09'
p435
sg11
L1048576L
sba(ipart
Part
p436
(dp437
g7
S'1683ff38af35df750fa7928447db9ec8/28a27bf3ca3e2b2e38157eb6bc609a0e.part'
p438
sg9
S'28a27bf3ca3e2b2e38157eb6bc609a0e'
p439
sg11
L1572864L
sba(ipart
Part
p440
(dp441
g7
S'1683ff38af35df750fa7928447db9ec8/fabffd74f296d0c1c3cfcbcb7d43bd66.part'
p442
sg9
S'fabffd74f296d0c1c3cfcbcb7d43bd66'
p443
sg11
L2097152L
sba(ipart
Part
p444
(dp445
g7
S'1683ff38af35df750fa7928447db9ec8/6a81a2f1b03c16207509ec5356dfa684.part'
p446
sg9
S'6a81a2f1b03c16207509ec5356dfa684'
p447
sg11
L2621440L
sba(ipart
Part
p448
(dp449
g7
S'1683ff38af35df750fa7928447db9ec8/61fa31b396272e477d96854786cfa61d.part'
p450
sg9
S'61fa31b396272e477d96854786cfa61d'
p451
sg11
L3145728L
sba(ipart
Part
p452
(dp453
g7
S'1683ff38af35df750fa7928447db9ec8/a364584db2236783e28b93115615a4e0.part'
p454
sg9
S'a364584db2236783e28b93115615a4e0'
p455
sg11
L3369489L
sba(ipart
Part
p456
(dp457
g7
S'1683ff38af35df750fa7928447db9ec8/455a0e1455d2cc455d2c632aed6c94fc.part'
p458
sg9
S'455a0e1455d2cc455d2c632aed6c94fc'
p459
sg11
L524288L
sba(ipart
Part
p460
(dp461
g7
S'1683ff38af35df750fa7928447db9ec8/0029b09e0bb15e51001ff11c6bf83f09.part'
p462
sg9
S'0029b09e0bb15e51001ff11c6bf83f09'
p463
sg11
L1048576L
sba(ipart
Part
p464
(dp465
g7
S'1683ff38af35df750fa7928447db9ec8/28a27bf3ca3e2b2e38157eb6bc609a0e.part'
p466
sg9
S'28a27bf3ca3e2b2e38157eb6bc609a0e'
p467
sg11
L1572864L
sba(ipart
Part
p468
(dp469
g7
S'1683ff38af35df750fa7928447db9ec8/fabffd74f296d0c1c3cfcbcb7d43bd66.part'
p470
sg9
S'fabffd74f296d0c1c3cfcbcb7d43bd66'
p471
sg11
L2097152L
sba(ipart
Part
p472
(dp473
g7
S'1683ff38af35df750fa7928447db9ec8/6a81a2f1b03c16207509ec5356dfa684.part'
p474
sg9
S'6a81a2f1b03c16207509ec5356dfa684'
p475
sg11
L2621440L
sba(ipart
Part
p476
(dp477
g7
S'1683ff38af35df750fa7928447db9ec8/61fa31b396272e477d96854786cfa61d.part'
p478
sg9
S'61fa31b396272e477d96854786cfa61d'
p479
sg11
L3145728L
sba(ipart
Part
p480
(dp481
g7
S'1683ff38af35df750fa7928447db9ec8/a364584db2236783e28b93115615a4e0.part'
p482
sg9
S'a364584db2236783e28b93115615a4e0'
p483
sg11
L3369489L
sba(ipart
Part
p484
(dp485
g7
S'1683ff38af35df750fa7928447db9ec8/455a0e1455d2cc455d2c632aed6c94fc.part'
p486
sg9
S'455a0e1455d2cc455d2c632aed6c94fc'
p487
sg11
L524288L
sba(ipart
Part
p488
(dp489
g7
S'1683ff38af35df750fa7928447db9ec8/0029b09e0bb15e51001ff11c6bf83f09.part'
p490
sg9
S'0029b09e0bb15e51001ff11c6bf83f09'
p491
sg11
L1048576L
sba(ipart
Part
p492
(dp493
g7
S'1683ff38af35df750fa7928447db9ec8/28a27bf3ca3e2b2e38157eb6bc609a0e.part'
p494
sg9
S'28a27bf3ca3e2b2e38157eb6bc609a0e'
p495
sg11
L1572864L
sba(ipart
Part
p496
(dp497
g7
S'1683ff38af35df750fa7928447db9ec8/fabffd74f296d0c1c3cfcbcb7d43bd66.part'
p498
sg9
S'fabffd74f296d0c1c3cfcbcb7d43bd66'
p499
sg11
L2097152L
sba(ipart
Part
p500
(dp501
g7
S'1683ff38af35df750fa7928447db9ec8/6a81a2f1b03c16207509ec5356dfa684.part'
p502
sg9
S'6a81a2f1b03c16207509ec5356dfa684'
p503
sg11
L2621440L
sba(ipart
Part
p504
(dp505
g7
S'1683ff38af35df750fa7928447db9ec8/61fa31b396272e477d96854786cfa61d.part'
p506
sg9
S'61fa31b396272e477d96854786cfa61d'
p507
sg11
L3145728L
sba(ipart
Part
p508
(dp509
g7
S'1683ff38af35df750fa7928447db9ec8/a364584db2236783e28b93115615a4e0.part'
p510
sg9
S'a364584db2236783e28b93115615a4e0'
p511
sg11
L3369489L
sba(ipart
Part
p512
(dp513
g7
S'1683ff38af35df750fa7928447db9ec8/455a0e1455d2cc455d2c632aed6c94fc.part'
p514
sg9
S'455a0e1455d2cc455d2c632aed6c94fc'
p515
sg11
L524288L
sba(ipart
Part
p516
(dp517
g7
S'1683ff38af35df750fa7928447db9ec8/0029b09e0bb15e51001ff11c6bf83f09.part'
p518
sg9
S'0029b09e0bb15e51001ff11c6bf83f09'
p519
sg11
L1048576L
sba(ipart
Part
p520
(dp521
g7
S'1683ff38af35df750fa7928447db9ec8/28a27bf3ca3e2b2e38157eb6bc609a0e.part'
p522
sg9
S'28a27bf3ca3e2b2e38157eb6bc609a0e'
p523
sg11
L1572864L
sba(ipart
Part
p524
(dp525
g7
S'1683ff38af35df750fa7928447db9ec8/fabffd74f296d0c1c3cfcbcb7d43bd66.part'
p526
sg9
S'fabffd74f296d0c1c3cfcbcb7d43bd66'
p527
sg11
L2097152L
sba(ipart
Part
p528
(dp529
g7
S'1683ff38af35df750fa7928447db9ec8/6a81a2f1b03c16207509ec5356dfa684.part'
p530
sg9
S'6a81a2f1b03c16207509ec5356dfa684'
p531
sg11
L2621440L
sba(ipart
Part
p532
(dp533
g7
S'1683ff38af35df750fa7928447db9ec8/61fa31b396272e477d96854786cfa61d.part'
p534
sg9
S'61fa31b396272e477d96854786cfa61d'
p535
sg11
L3145728L
sba(ipart
Part
p536
(dp537
g7
S'1683ff38af35df750fa7928447db9ec8/a364584db2236783e28b93115615a4e0.part'
p538
sg9
S'a364584db2236783e28b93115615a4e0'
p539
sg11
L3369489L
sba(ipart
Part
p540
(dp541
g7
S'1683ff38af35df750fa7928447db9ec8/455a0e1455d2cc455d2c632aed6c94fc.part'
p542
sg9
S'455a0e1455d2cc455d2c632aed6c94fc'
p543
sg11
L524288L
sba(ipart
Part
p544
(dp545
g7
S'1683ff38af35df750fa7928447db9ec8/0029b09e0bb15e51001ff11c6bf83f09.part'
p546
sg9
S'0029b09e0bb15e51001ff11c6bf83f09'
p547
sg11
L1048576L
sba(ipart
Part
p548
(dp549
g7
S'1683ff38af35df750fa7928447db9ec8/28a27bf3ca3e2b2e38157eb6bc609a0e.part'
p550
sg9
S'28a27bf3ca3e2b2e38157eb6bc609a0e'
p551
sg11
L1572864L
sba(ipart
Part
p552
(dp553
g7
S'1683ff38af35df750fa7928447db9ec8/fabffd74f296d0c1c3cfcbcb7d43bd66.part'
p554
sg9
S'fabffd74f296d0c1c3cfcbcb7d43bd66'
p555
sg11
L2097152L
sba(ipart
Part
p556
(dp557
g7
S'1683ff38af35df750fa7928447db9ec8/6a81a2f1b03c16207509ec5356dfa684.part'
p558
sg9
S'6a81a2f1b03c16207509ec5356dfa684'
p559
sg11
L2621440L
sba(ipart
Part
p560
(dp561
g7
S'1683ff38af35df750fa7928447db9ec8/61fa31b396272e477d96854786cfa61d.part'
p562
sg9
S'61fa31b396272e477d96854786cfa61d'
p563
sg11
L3145728L
sba(ipart
Part
p564
(dp565
g7
S'1683ff38af35df750fa7928447db9ec8/a364584db2236783e28b93115615a4e0.part'
p566
sg9
S'a364584db2236783e28b93115615a4e0'
p567
sg11
L3369489L
sba(ipart
Part
p568
(dp569
g7
S'1683ff38af35df750fa7928447db9ec8/455a0e1455d2cc455d2c632aed6c94fc.part'
p570
sg9
S'455a0e1455d2cc455d2c632aed6c94fc'
p571
sg11
L524288L
sba(ipart
Part
p572
(dp573
g7
S'1683ff38af35df750fa7928447db9ec8/0029b09e0bb15e51001ff11c6bf83f09.part'
p574
sg9
S'0029b09e0bb15e51001ff11c6bf83f09'
p575
sg11
L1048576L
sba(ipart
Part
p576
(dp577
g7
S'1683ff38af35df750fa7928447db9ec8/28a27bf3ca3e2b2e38157eb6bc609a0e.part'
p578
sg9
S'28a27bf3ca3e2b2e38157eb6bc609a0e'
p579
sg11
L1572864L
sba(ipart
Part
p580
(dp581
g7
S'1683ff38af35df750fa7928447db9ec8/fabffd74f296d0c1c3cfcbcb7d43bd66.part'
p582
sg9
S'fabffd74f296d0c1c3cfcbcb7d43bd66'
p583
sg11
L2097152L
sba(ipart
Part
p584
(dp585
g7
S'1683ff38af35df750fa7928447db9ec8/6a81a2f1b03c16207509ec5356dfa684.part'
p586
sg9
S'6a81a2f1b03c16207509ec5356dfa684'
p587
sg11
L2621440L
sba(ipart
Part
p588
(dp589
g7
S'1683ff38af35df750fa7928447db9ec8/61fa31b396272e477d96854786cfa61d.part'
p590
sg9
S'61fa31b396272e477d96854786cfa61d'
p591
sg11
L3145728L
sba(ipart
Part
p592
(dp593
g7
S'1683ff38af35df750fa7928447db9ec8/a364584db2236783e28b93115615a4e0.part'
p594
sg9
S'a364584db2236783e28b93115615a4e0'
p595
sg11
L3369489L
sba(ipart
Part
p596
(dp597
g7
S'1683ff38af35df750fa7928447db9ec8/455a0e1455d2cc455d2c632aed6c94fc.part'
p598
sg9
S'455a0e1455d2cc455d2c632aed6c94fc'
p599
sg11
L524288L
sba(ipart
Part
p600
(dp601
g7
S'1683ff38af35df750fa7928447db9ec8/0029b09e0bb15e51001ff11c6bf83f09.part'
p602
sg9
S'0029b09e0bb15e51001ff11c6bf83f09'
p603
sg11
L1048576L
sba(ipart
Part
p604
(dp605
g7
S'1683ff38af35df750fa7928447db9ec8/28a27bf3ca3e2b2e38157eb6bc609a0e.part'
p606
sg9
S'28a27bf3ca3e2b2e38157eb6bc609a0e'
p607
sg11
L1572864L
sba(ipart
Part
p608
(dp609
g7
S'1683ff38af35df750fa7928447db9ec8/fabffd74f296d0c1c3cfcbcb7d43bd66.part'
p610
sg9
S'fabffd74f296d0c1c3cfcbcb7d43bd66'
p611
sg11
L2097152L
sba(ipart
Part
p612
(dp613
g7
S'1683ff38af35df750fa7928447db9ec8/6a81a2f1b03c16207509ec5356dfa684.part'
p614
sg9
S'6a81a2f1b03c16207509ec5356dfa684'
p615
sg11
L2621440L
sba(ipart
Part
p616
(dp617
g7
S'1683ff38af35df750fa7928447db9ec8/61fa31b396272e477d96854786cfa61d.part'
p618
sg9
S'61fa31b396272e477d96854786cfa61d'
p619
sg11
L3145728L
sba(ipart
Part
p620
(dp621
g7
S'1683ff38af35df750fa7928447db9ec8/a364584db2236783e28b93115615a4e0.part'
p622
sg9
S'a364584db2236783e28b93115615a4e0'
p623
sg11
L3369489L
sba(ipart
Part
p624
(dp625
g7
S'1683ff38af35df750fa7928447db9ec8/455a0e1455d2cc455d2c632aed6c94fc.part'
p626
sg9
S'455a0e1455d2cc455d2c632aed6c94fc'
p627
sg11
L524288L
sba(ipart
Part
p628
(dp629
g7
S'1683ff38af35df750fa7928447db9ec8/0029b09e0bb15e51001ff11c6bf83f09.part'
p630
sg9
S'0029b09e0bb15e51001ff11c6bf83f09'
p631
sg11
L1048576L
sba(ipart
Part
p632
(dp633
g7
S'1683ff38af35df750fa7928447db9ec8/28a27bf3ca3e2b2e38157eb6bc609a0e.part'
p634
sg9
S'28a27bf3ca3e2b2e38157eb6bc609a0e'
p635
sg11
L1572864L
sba(ipart
Part
p636
(dp637
g7
S'1683ff38af35df750fa7928447db9ec8/fabffd74f296d0c1c3cfcbcb7d43bd66.part'
p638
sg9
S'fabffd74f296d0c1c3cfcbcb7d43bd66'
p639
sg11
L2097152L
sba(ipart
Part
p640
(dp641
g7
S'1683ff38af35df750fa7928447db9ec8/6a81a2f1b03c16207509ec5356dfa684.part'
p642
sg9
S'6a81a2f1b03c16207509ec5356dfa684'
p643
sg11
L2621440L
sba(ipart
Part
p644
(dp645
g7
S'1683ff38af35df750fa7928447db9ec8/61fa31b396272e477d96854786cfa61d.part'
p646
sg9
S'61fa31b396272e477d96854786cfa61d'
p647
sg11
L3145728L
sba(ipart
Part
p648
(dp649
g7
S'1683ff38af35df750fa7928447db9ec8/a364584db2236783e28b93115615a4e0.part'
p650
sg9
S'a364584db2236783e28b93115615a4e0'
p651
sg11
L3369489L
sba(ipart
Part
p652
(dp653
g7
S'1683ff38af35df750fa7928447db9ec8/455a0e1455d2cc455d2c632aed6c94fc.part'
p654
sg9
S'455a0e1455d2cc455d2c632aed6c94fc'
p655
sg11
L524288L
sba(ipart
Part
p656
(dp657
g7
S'1683ff38af35df750fa7928447db9ec8/0029b09e0bb15e51001ff11c6bf83f09.part'
p658
sg9
S'0029b09e0bb15e51001ff11c6bf83f09'
p659
sg11
L1048576L
sba(ipart
Part
p660
(dp661
g7
S'1683ff38af35df750fa7928447db9ec8/28a27bf3ca3e2b2e38157eb6bc609a0e.part'
p662
sg9
S'28a27bf3ca3e2b2e38157eb6bc609a0e'
p663
sg11
L1572864L
sba(ipart
Part
p664
(dp665
g7
S'1683ff38af35df750fa7928447db9ec8/fabffd74f296d0c1c3cfcbcb7d43bd66.part'
p666
sg9
S'fabffd74f296d0c1c3cfcbcb7d43bd66'
p667
sg11
L2097152L
sba(ipart
Part
p668
(dp669
g7
S'1683ff38af35df750fa7928447db9ec8/6a81a2f1b03c16207509ec5356dfa684.part'
p670
sg9
S'6a81a2f1b03c16207509ec5356dfa684'
p671
sg11
L2621440L
sba(ipart
Part
p672
(dp673
g7
S'1683ff38af35df750fa7928447db9ec8/61fa31b396272e477d96854786cfa61d.part'
p674
sg9
S'61fa31b396272e477d96854786cfa61d'
p675
sg11
L3145728L
sba(ipart
Part
p676
(dp677
g7
S'1683ff38af35df750fa7928447db9ec8/a364584db2236783e28b93115615a4e0.part'
p678
sg9
S'a364584db2236783e28b93115615a4e0'
p679
sg11
L3369489L
sba(ipart
Part
p680
(dp681
g7
S'1683ff38af35df750fa7928447db9ec8/455a0e1455d2cc455d2c632aed6c94fc.part'
p682
sg9
S'455a0e1455d2cc455d2c632aed6c94fc'
p683
sg11
L524288L
sba(ipart
Part
p684
(dp685
g7
S'1683ff38af35df750fa7928447db9ec8/0029b09e0bb15e51001ff11c6bf83f09.part'
p686
sg9
S'0029b09e0bb15e51001ff11c6bf83f09'
p687
sg11
L1048576L
sba(ipart
Part
p688
(dp689
g7
S'1683ff38af35df750fa7928447db9ec8/28a27bf3ca3e2b2e38157eb6bc609a0e.part'
p690
sg9
S'28a27bf3ca3e2b2e38157eb6bc609a0e'
p691
sg11
L1572864L
sba(ipart
Part
p692
(dp693
g7
S'1683ff38af35df750fa7928447db9ec8/fabffd74f296d0c1c3cfcbcb7d43bd66.part'
p694
sg9
S'fabffd74f296d0c1c3cfcbcb7d43bd66'
p695
sg11
L2097152L
sba(ipart
Part
p696
(dp697
g7
S'1683ff38af35df750fa7928447db9ec8/6a81a2f1b03c16207509ec5356dfa684.part'
p698
sg9
S'6a81a2f1b03c16207509ec5356dfa684'
p699
sg11
L2621440L
sba(ipart
Part
p700
(dp701
g7
S'1683ff38af35df750fa7928447db9ec8/61fa31b396272e477d96854786cfa61d.part'
p702
sg9
S'61fa31b396272e477d96854786cfa61d'
p703
sg11
L3145728L
sba(ipart
Part
p704
(dp705
g7
S'1683ff38af35df750fa7928447db9ec8/a364584db2236783e28b93115615a4e0.part'
p706
sg9
S'a364584db2236783e28b93115615a4e0'
p707
sg11
L3369489L
sba(ipart
Part
p708
(dp709
g7
S'1683ff38af35df750fa7928447db9ec8/455a0e1455d2cc455d2c632aed6c94fc.part'
p710
sg9
S'455a0e1455d2cc455d2c632aed6c94fc'
p711
sg11
L524288L
sba(ipart
Part
p712
(dp713
g7
S'1683ff38af35df750fa7928447db9ec8/0029b09e0bb15e51001ff11c6bf83f09.part'
p714
sg9
S'0029b09e0bb15e51001ff11c6bf83f09'
p715
sg11
L1048576L
sba(ipart
Part
p716
(dp717
g7
S'1683ff38af35df750fa7928447db9ec8/28a27bf3ca3e2b2e38157eb6bc609a0e.part'
p718
sg9
S'28a27bf3ca3e2b2e38157eb6bc609a0e'
p719
sg11
L1572864L
sba(ipart
Part
p720
(dp721
g7
S'1683ff38af35df750fa7928447db9ec8/fabffd74f296d0c1c3cfcbcb7d43bd66.part'
p722
sg9
S'fabffd74f296d0c1c3cfcbcb7d43bd66'
p723
sg11
L2097152L
sba(ipart
Part
p724
(dp725
g7
S'1683ff38af35df750fa7928447db9ec8/6a81a2f1b03c16207509ec5356dfa684.part'
p726
sg9
S'6a81a2f1b03c16207509ec5356dfa684'
p727
sg11
L2621440L
sba(ipart
Part
p728
(dp729
g7
S'1683ff38af35df750fa7928447db9ec8/61fa31b396272e477d96854786cfa61d.part'
p730
sg9
S'61fa31b396272e477d96854786cfa61d'
p731
sg11
L3145728L
sba(ipart
Part
p732
(dp733
g7
S'1683ff38af35df750fa7928447db9ec8/a364584db2236783e28b93115615a4e0.part'
p734
sg9
S'a364584db2236783e28b93115615a4e0'
p735
sg11
L3369489L
sba(ipart
Part
p736
(dp737
g7
S'1683ff38af35df750fa7928447db9ec8/455a0e1455d2cc455d2c632aed6c94fc.part'
p738
sg9
S'455a0e1455d2cc455d2c632aed6c94fc'
p739
sg11
L524288L
sba(ipart
Part
p740
(dp741
g7
S'1683ff38af35df750fa7928447db9ec8/0029b09e0bb15e51001ff11c6bf83f09.part'
p742
sg9
S'0029b09e0bb15e51001ff11c6bf83f09'
p743
sg11
L1048576L
sba(ipart
Part
p744
(dp745
g7
S'1683ff38af35df750fa7928447db9ec8/28a27bf3ca3e2b2e38157eb6bc609a0e.part'
p746
sg9
S'28a27bf3ca3e2b2e38157eb6bc609a0e'
p747
sg11
L1572864L
sba(ipart
Part
p748
(dp749
g7
S'1683ff38af35df750fa7928447db9ec8/fabffd74f296d0c1c3cfcbcb7d43bd66.part'
p750
sg9
S'fabffd74f296d0c1c3cfcbcb7d43bd66'
p751
sg11
L2097152L
sba(ipart
Part
p752
(dp753
g7
S'1683ff38af35df750fa7928447db9ec8/6a81a2f1b03c16207509ec5356dfa684.part'
p754
sg9
S'6a81a2f1b03c16207509ec5356dfa684'
p755
sg11
L2621440L
sba(ipart
Part
p756
(dp757
g7
S'1683ff38af35df750fa7928447db9ec8/61fa31b396272e477d96854786cfa61d.part'
p758
sg9
S'61fa31b396272e477d96854786cfa61d'
p759
sg11
L3145728L
sba(ipart
Part
p760
(dp761
g7
S'1683ff38af35df750fa7928447db9ec8/a364584db2236783e28b93115615a4e0.part'
p762
sg9
S'a364584db2236783e28b93115615a4e0'
p763
sg11
L3369489L
sba(ipart
Part
p764
(dp765
g7
S'1683ff38af35df750fa7928447db9ec8/455a0e1455d2cc455d2c632aed6c94fc.part'
p766
sg9
S'455a0e1455d2cc455d2c632aed6c94fc'
p767
sg11
L524288L
sba(ipart
Part
p768
(dp769
g7
S'1683ff38af35df750fa7928447db9ec8/0029b09e0bb15e51001ff11c6bf83f09.part'
p770
sg9
S'0029b09e0bb15e51001ff11c6bf83f09'
p771
sg11
L1048576L
sba(ipart
Part
p772
(dp773
g7
S'1683ff38af35df750fa7928447db9ec8/28a27bf3ca3e2b2e38157eb6bc609a0e.part'
p774
sg9
S'28a27bf3ca3e2b2e38157eb6bc609a0e'
p775
sg11
L1572864L
sba(ipart
Part
p776
(dp777
g7
S'1683ff38af35df750fa7928447db9ec8/fabffd74f296d0c1c3cfcbcb7d43bd66.part'
p778
sg9
S'fabffd74f296d0c1c3cfcbcb7d43bd66'
p779
sg11
L2097152L
sba(ipart
Part
p780
(dp781
g7
S'1683ff38af35df750fa7928447db9ec8/6a81a2f1b03c16207509ec5356dfa684.part'
p782
sg9
S'6a81a2f1b03c16207509ec5356dfa684'
p783
sg11
L2621440L
sba(ipart
Part
p784
(dp785
g7
S'1683ff38af35df750fa7928447db9ec8/61fa31b396272e477d96854786cfa61d.part'
p786
sg9
S'61fa31b396272e477d96854786cfa61d'
p787
sg11
L3145728L
sba(ipart
Part
p788
(dp789
g7
S'1683ff38af35df750fa7928447db9ec8/a364584db2236783e28b93115615a4e0.part'
p790
sg9
S'a364584db2236783e28b93115615a4e0'
p791
sg11
L3369489L
sba(ipart
Part
p792
(dp793
g7
S'1683ff38af35df750fa7928447db9ec8/455a0e1455d2cc455d2c632aed6c94fc.part'
p794
sg9
S'455a0e1455d2cc455d2c632aed6c94fc'
p795
sg11
L524288L
sba(ipart
Part
p796
(dp797
g7
S'1683ff38af35df750fa7928447db9ec8/0029b09e0bb15e51001ff11c6bf83f09.part'
p798
sg9
S'0029b09e0bb15e51001ff11c6bf83f09'
p799
sg11
L1048576L
sba(ipart
Part
p800
(dp801
g7
S'1683ff38af35df750fa7928447db9ec8/28a27bf3ca3e2b2e38157eb6bc609a0e.part'
p802
sg9
S'28a27bf3ca3e2b2e38157eb6bc609a0e'
p803
sg11
L1572864L
sba(ipart
Part
p804
(dp805
g7
S'1683ff38af35df750fa7928447db9ec8/fabffd74f296d0c1c3cfcbcb7d43bd66.part'
p806
sg9
S'fabffd74f296d0c1c3cfcbcb7d43bd66'
p807
sg11
L2097152L
sba(ipart
Part
p808
(dp809
g7
S'1683ff38af35df750fa7928447db9ec8/6a81a2f1b03c16207509ec5356dfa684.part'
p810
sg9
S'6a81a2f1b03c16207509ec5356dfa684'
p811
sg11
L2621440L
sba(ipart
Part
p812
(dp813
g7
S'1683ff38af35df750fa7928447db9ec8/61fa31b396272e477d96854786cfa61d.part'
p814
sg9
S'61fa31b396272e477d96854786cfa61d'
p815
sg11
L3145728L
sba(ipart
Part
p816
(dp817
g7
S'1683ff38af35df750fa7928447db9ec8/a364584db2236783e28b93115615a4e0.part'
p818
sg9
S'a364584db2236783e28b93115615a4e0'
p819
sg11
L3369489L
sba(ipart
Part
p820
(dp821
g7
S'1683ff38af35df750fa7928447db9ec8/455a0e1455d2cc455d2c632aed6c94fc.part'
p822
sg9
S'455a0e1455d2cc455d2c632aed6c94fc'
p823
sg11
L524288L
sba(ipart
Part
p824
(dp825
g7
S'1683ff38af35df750fa7928447db9ec8/0029b09e0bb15e51001ff11c6bf83f09.part'
p826
sg9
S'0029b09e0bb15e51001ff11c6bf83f09'
p827
sg11
L1048576L
sba(ipart
Part
p828
(dp829
g7
S'1683ff38af35df750fa7928447db9ec8/28a27bf3ca3e2b2e38157eb6bc609a0e.part'
p830
sg9
S'28a27bf3ca3e2b2e38157eb6bc609a0e'
p831
sg11
L1572864L
sba(ipart
Part
p832
(dp833
g7
S'1683ff38af35df750fa7928447db9ec8/fabffd74f296d0c1c3cfcbcb7d43bd66.part'
p834
sg9
S'fabffd74f296d0c1c3cfcbcb7d43bd66'
p835
sg11
L2097152L
sba(ipart
Part
p836
(dp837
g7
S'1683ff38af35df750fa7928447db9ec8/6a81a2f1b03c16207509ec5356dfa684.part'
p838
sg9
S'6a81a2f1b03c16207509ec5356dfa684'
p839
sg11
L2621440L
sba(ipart
Part
p840
(dp841
g7
S'1683ff38af35df750fa7928447db9ec8/61fa31b396272e477d96854786cfa61d.part'
p842
sg9
S'61fa31b396272e477d96854786cfa61d'
p843
sg11
L3145728L
sba(ipart
Part
p844
(dp845
g7
S'1683ff38af35df750fa7928447db9ec8/a364584db2236783e28b93115615a4e0.part'
p846
sg9
S'a364584db2236783e28b93115615a4e0'
p847
sg11
L3369489L
sba(ipart
Part
p848
(dp849
g7
S'1683ff38af35df750fa7928447db9ec8/455a0e1455d2cc455d2c632aed6c94fc.part'
p850
sg9
S'455a0e1455d2cc455d2c632aed6c94fc'
p851
sg11
L524288L
sba(ipart
Part
p852
(dp853
g7
S'1683ff38af35df750fa7928447db9ec8/0029b09e0bb15e51001ff11c6bf83f09.part'
p854
sg9
S'0029b09e0bb15e51001ff11c6bf83f09'
p855
sg11
L1048576L
sba(ipart
Part
p856
(dp857
g7
S'1683ff38af35df750fa7928447db9ec8/28a27bf3ca3e2b2e38157eb6bc609a0e.part'
p858
sg9
S'28a27bf3ca3e2b2e38157eb6bc609a0e'
p859
sg11
L1572864L
sba(ipart
Part
p860
(dp861
g7
S'1683ff38af35df750fa7928447db9ec8/fabffd74f296d0c1c3cfcbcb7d43bd66.part'
p862
sg9
S'fabffd74f296d0c1c3cfcbcb7d43bd66'
p863
sg11
L2097152L
sba(ipart
Part
p864
(dp865
g7
S'1683ff38af35df750fa7928447db9ec8/6a81a2f1b03c16207509ec5356dfa684.part'
p866
sg9
S'6a81a2f1b03c16207509ec5356dfa684'
p867
sg11
L2621440L
sba(ipart
Part
p868
(dp869
g7
S'1683ff38af35df750fa7928447db9ec8/61fa31b396272e477d96854786cfa61d.part'
p870
sg9
S'61fa31b396272e477d96854786cfa61d'
p871
sg11
L3145728L
sba(ipart
Part
p872
(dp873
g7
S'1683ff38af35df750fa7928447db9ec8/a364584db2236783e28b93115615a4e0.part'
p874
sg9
S'a364584db2236783e28b93115615a4e0'
p875
sg11
L3369489L
sba(ipart
Part
p876
(dp877
g7
S'1683ff38af35df750fa7928447db9ec8/455a0e1455d2cc455d2c632aed6c94fc.part'
p878
sg9
S'455a0e1455d2cc455d2c632aed6c94fc'
p879
sg11
L524288L
sba(ipart
Part
p880
(dp881
g7
S'1683ff38af35df750fa7928447db9ec8/0029b09e0bb15e51001ff11c6bf83f09.part'
p882
sg9
S'0029b09e0bb15e51001ff11c6bf83f09'
p883
sg11
L1048576L
sba(ipart
Part
p884
(dp885
g7
S'1683ff38af35df750fa7928447db9ec8/28a27bf3ca3e2b2e38157eb6bc609a0e.part'
p886
sg9
S'28a27bf3ca3e2b2e38157eb6bc609a0e'
p887
sg11
L1572864L
sba(ipart
Part
p888
(dp889
g7
S'1683ff38af35df750fa7928447db9ec8/fabffd74f296d0c1c3cfcbcb7d43bd66.part'
p890
sg9
S'fabffd74f296d0c1c3cfcbcb7d43bd66'
p891
sg11
L2097152L
sba(ipart
Part
p892
(dp893
g7
S'1683ff38af35df750fa7928447db9ec8/6a81a2f1b03c16207509ec5356dfa684.part'
p894
sg9
S'6a81a2f1b03c16207509ec5356dfa684'
p895
sg11
L2621440L
sba(ipart
Part
p896
(dp897
g7
S'1683ff38af35df750fa7928447db9ec8/61fa31b396272e477d96854786cfa61d.part'
p898
sg9
S'61fa31b396272e477d96854786cfa61d'
p899
sg11
L3145728L
sba(ipart
Part
p900
(dp901
g7
S'1683ff38af35df750fa7928447db9ec8/a364584db2236783e28b93115615a4e0.part'
p902
sg9
S'a364584db2236783e28b93115615a4e0'
p903
sg11
L3369489L
sba(ipart
Part
p904
(dp905
g7
S'1683ff38af35df750fa7928447db9ec8/455a0e1455d2cc455d2c632aed6c94fc.part'
p906
sg9
S'455a0e1455d2cc455d2c632aed6c94fc'
p907
sg11
L524288L
sba(ipart
Part
p908
(dp909
g7
S'1683ff38af35df750fa7928447db9ec8/0029b09e0bb15e51001ff11c6bf83f09.part'
p910
sg9
S'0029b09e0bb15e51001ff11c6bf83f09'
p911
sg11
L1048576L
sba(ipart
Part
p912
(dp913
g7
S'1683ff38af35df750fa7928447db9ec8/28a27bf3ca3e2b2e38157eb6bc609a0e.part'
p914
sg9
S'28a27bf3ca3e2b2e38157eb6bc609a0e'
p915
sg11
L1572864L
sba(ipart
Part
p916
(dp917
g7
S'1683ff38af35df750fa7928447db9ec8/fabffd74f296d0c1c3cfcbcb7d43bd66.part'
p918
sg9
S'fabffd74f296d0c1c3cfcbcb7d43bd66'
p919
sg11
L2097152L
sba(ipart
Part
p920
(dp921
g7
S'1683ff38af35df750fa7928447db9ec8/6a81a2f1b03c16207509ec5356dfa684.part'
p922
sg9
S'6a81a2f1b03c16207509ec5356dfa684'
p923
sg11
L2621440L
sba(ipart
Part
p924
(dp925
g7
S'1683ff38af35df750fa7928447db9ec8/61fa31b396272e477d96854786cfa61d.part'
p926
sg9
S'61fa31b396272e477d96854786cfa61d'
p927
sg11
L3145728L
sba(ipart
Part
p928
(dp929
g7
S'1683ff38af35df750fa7928447db9ec8/a364584db2236783e28b93115615a4e0.part'
p930
sg9
S'a364584db2236783e28b93115615a4e0'
p931
sg11
L3369489L
sba(ipart
Part
p932
(dp933
g7
S'1683ff38af35df750fa7928447db9ec8/455a0e1455d2cc455d2c632aed6c94fc.part'
p934
sg9
S'455a0e1455d2cc455d2c632aed6c94fc'
p935
sg11
L524288L
sba(ipart
Part
p936
(dp937
g7
S'1683ff38af35df750fa7928447db9ec8/0029b09e0bb15e51001ff11c6bf83f09.part'
p938
sg9
S'0029b09e0bb15e51001ff11c6bf83f09'
p939
sg11
L1048576L
sba(ipart
Part
p940
(dp941
g7
S'1683ff38af35df750fa7928447db9ec8/28a27bf3ca3e2b2e38157eb6bc609a0e.part'
p942
sg9
S'28a27bf3ca3e2b2e38157eb6bc609a0e'
p943
sg11
L1572864L
sba(ipart
Part
p944
(dp945
g7
S'1683ff38af35df750fa7928447db9ec8/fabffd74f296d0c1c3cfcbcb7d43bd66.part'
p946
sg9
S'fabffd74f296d0c1c3cfcbcb7d43bd66'
p947
sg11
L2097152L
sba(ipart
Part
p948
(dp949
g7
S'1683ff38af35df750fa7928447db9ec8/6a81a2f1b03c16207509ec5356dfa684.part'
p950
sg9
S'6a81a2f1b03c16207509ec5356dfa684'
p951
sg11
L2621440L
sba(ipart
Part
p952
(dp953
g7
S'1683ff38af35df750fa7928447db9ec8/61fa31b396272e477d96854786cfa61d.part'
p954
sg9
S'61fa31b396272e477d96854786cfa61d'
p955
sg11
L3145728L
sba(ipart
Part
p956
(dp957
g7
S'1683ff38af35df750fa7928447db9ec8/a364584db2236783e28b93115615a4e0.part'
p958
sg9
S'a364584db2236783e28b93115615a4e0'
p959
sg11
L3369489L
sba(ipart
Part
p960
(dp961
g7
S'1683ff38af35df750fa7928447db9ec8/455a0e1455d2cc455d2c632aed6c94fc.part'
p962
sg9
S'455a0e1455d2cc455d2c632aed6c94fc'
p963
sg11
L524288L
sba(ipart
Part
p964
(dp965
g7
S'1683ff38af35df750fa7928447db9ec8/0029b09e0bb15e51001ff11c6bf83f09.part'
p966
sg9
S'0029b09e0bb15e51001ff11c6bf83f09'
p967
sg11
L1048576L
sba(ipart
Part
p968
(dp969
g7
S'1683ff38af35df750fa7928447db9ec8/28a27bf3ca3e2b2e38157eb6bc609a0e.part'
p970
sg9
S'28a27bf3ca3e2b2e38157eb6bc609a0e'
p971
sg11
L1572864L
sba(ipart
Part
p972
(dp973
g7
S'1683ff38af35df750fa7928447db9ec8/fabffd74f296d0c1c3cfcbcb7d43bd66.part'
p974
sg9
S'fabffd74f296d0c1c3cfcbcb7d43bd66'
p975
sg11
L2097152L
sba(ipart
Part
p976
(dp977
g7
S'1683ff38af35df750fa7928447db9ec8/6a81a2f1b03c16207509ec5356dfa684.part'
p978
sg9
S'6a81a2f1b03c16207509ec5356dfa684'
p979
sg11
L2621440L
sba(ipart
Part
p980
(dp981
g7
S'1683ff38af35df750fa7928447db9ec8/61fa31b396272e477d96854786cfa61d.part'
p982
sg9
S'61fa31b396272e477d96854786cfa61d'
p983
sg11
L3145728L
sba(ipart
Part
p984
(dp985
g7
S'1683ff38af35df750fa7928447db9ec8/a364584db2236783e28b93115615a4e0.part'
p986
sg9
S'a364584db2236783e28b93115615a4e0'
p987
sg11
L3369489L
sba(ipart
Part
p988
(dp989
g7
S'1683ff38af35df750fa7928447db9ec8/455a0e1455d2cc455d2c632aed6c94fc.part'
p990
sg9
S'455a0e1455d2cc455d2c632aed6c94fc'
p991
sg11
L524288L
sba(ipart
Part
p992
(dp993
g7
S'1683ff38af35df750fa7928447db9ec8/0029b09e0bb15e51001ff11c6bf83f09.part'
p994
sg9
S'0029b09e0bb15e51001ff11c6bf83f09'
p995
sg11
L1048576L
sba(ipart
Part
p996
(dp997
g7
S'1683ff38af35df750fa7928447db9ec8/28a27bf3ca3e2b2e38157eb6bc609a0e.part'
p998
sg9
S'28a27bf3ca3e2b2e38157eb6bc609a0e'
p999
sg11
L1572864L
sba(ipart
Part
p1000
(dp1001
g7
S'1683ff38af35df750fa7928447db9ec8/fabffd74f296d0c1c3cfcbcb7d43bd66.part'
p1002
sg9
S'fabffd74f296d0c1c3cfcbcb7d43bd66'
p1003
sg11
L2097152L
sba(ipart
Part
p1004
(dp1005
g7
S'1683ff38af35df750fa7928447db9ec8/6a81a2f1b03c16207509ec5356dfa684.part'
p1006
sg9
S'6a81a2f1b03c16207509ec5356dfa684'
p1007
sg11
L2621440L
sba(ipart
Part
p1008
(dp1009
g7
S'1683ff38af35df750fa7928447db9ec8/61fa31b396272e477d96854786cfa61d.part'
p1010
sg9
S'61fa31b396272e477d96854786cfa61d'
p1011
sg11
L3145728L
sba(ipart
Part
p1012
(dp1013
g7
S'1683ff38af35df750fa7928447db9ec8/a364584db2236783e28b93115615a4e0.part'
p1014
sg9
S'a364584db2236783e28b93115615a4e0'
p1015
sg11
L3369489L
sba(ipart
Part
p1016
(dp1017
g7
S'1683ff38af35df750fa7928447db9ec8/455a0e1455d2cc455d2c632aed6c94fc.part'
p1018
sg9
S'455a0e1455d2cc455d2c632aed6c94fc'
p1019
sg11
L524288L
sba(ipart
Part
p1020
(dp1021
g7
S'1683ff38af35df750fa7928447db9ec8/0029b09e0bb15e51001ff11c6bf83f09.part'
p1022
sg9
S'0029b09e0bb15e51001ff11c6bf83f09'
p1023
sg11
L1048576L
sba(ipart
Part
p1024
(dp1025
g7
S'1683ff38af35df750fa7928447db9ec8/28a27bf3ca3e2b2e38157eb6bc609a0e.part'
p1026
sg9
S'28a27bf3ca3e2b2e38157eb6bc609a0e'
p1027
sg11
L1572864L
sba(ipart
Part
p1028
(dp1029
g7
S'1683ff38af35df750fa7928447db9ec8/fabffd74f296d0c1c3cfcbcb7d43bd66.part'
p1030
sg9
S'fabffd74f296d0c1c3cfcbcb7d43bd66'
p1031
sg11
L2097152L
sba(ipart
Part
p1032
(dp1033
g7
S'1683ff38af35df750fa7928447db9ec8/6a81a2f1b03c16207509ec5356dfa684.part'
p1034
sg9
S'6a81a2f1b03c16207509ec5356dfa684'
p1035
sg11
L2621440L
sba(ipart
Part
p1036
(dp1037
g7
S'1683ff38af35df750fa7928447db9ec8/61fa31b396272e477d96854786cfa61d.part'
p1038
sg9
S'61fa31b396272e477d96854786cfa61d'
p1039
sg11
L3145728L
sba(ipart
Part
p1040
(dp1041
g7
S'1683ff38af35df750fa7928447db9ec8/a364584db2236783e28b93115615a4e0.part'
p1042
sg9
S'a364584db2236783e28b93115615a4e0'
p1043
sg11
L3369489L
sba(ipart
Part
p1044
(dp1045
g7
S'1683ff38af35df750fa7928447db9ec8/455a0e1455d2cc455d2c632aed6c94fc.part'
p1046
sg9
S'455a0e1455d2cc455d2c632aed6c94fc'
p1047
sg11
L524288L
sba(ipart
Part
p1048
(dp1049
g7
S'1683ff38af35df750fa7928447db9ec8/0029b09e0bb15e51001ff11c6bf83f09.part'
p1050
sg9
S'0029b09e0bb15e51001ff11c6bf83f09'
p1051
sg11
L1048576L
sba(ipart
Part
p1052
(dp1053
g7
S'1683ff38af35df750fa7928447db9ec8/28a27bf3ca3e2b2e38157eb6bc609a0e.part'
p1054
sg9
S'28a27bf3ca3e2b2e38157eb6bc609a0e'
p1055
sg11
L1572864L
sba(ipart
Part
p1056
(dp1057
g7
S'1683ff38af35df750fa7928447db9ec8/fabffd74f296d0c1c3cfcbcb7d43bd66.part'
p1058
sg9
S'fabffd74f296d0c1c3cfcbcb7d43bd66'
p1059
sg11
L2097152L
sba(ipart
Part
p1060
(dp1061
g7
S'1683ff38af35df750fa7928447db9ec8/6a81a2f1b03c16207509ec5356dfa684.part'
p1062
sg9
S'6a81a2f1b03c16207509ec5356dfa684'
p1063
sg11
L2621440L
sba(ipart
Part
p1064
(dp1065
g7
S'1683ff38af35df750fa7928447db9ec8/61fa31b396272e477d96854786cfa61d.part'
p1066
sg9
S'61fa31b396272e477d96854786cfa61d'
p1067
sg11
L3145728L
sba(ipart
Part
p1068
(dp1069
g7
S'1683ff38af35df750fa7928447db9ec8/a364584db2236783e28b93115615a4e0.part'
p1070
sg9
S'a364584db2236783e28b93115615a4e0'
p1071
sg11
L3369489L
sba(ipart
Part
p1072
(dp1073
g7
S'1683ff38af35df750fa7928447db9ec8/455a0e1455d2cc455d2c632aed6c94fc.part'
p1074
sg9
S'455a0e1455d2cc455d2c632aed6c94fc'
p1075
sg11
L524288L
sba(ipart
Part
p1076
(dp1077
g7
S'1683ff38af35df750fa7928447db9ec8/0029b09e0bb15e51001ff11c6bf83f09.part'
p1078
sg9
S'0029b09e0bb15e51001ff11c6bf83f09'
p1079
sg11
L1048576L
sba(ipart
Part
p1080
(dp1081
g7
S'1683ff38af35df750fa7928447db9ec8/28a27bf3ca3e2b2e38157eb6bc609a0e.part'
p1082
sg9
S'28a27bf3ca3e2b2e38157eb6bc609a0e'
p1083
sg11
L1572864L
sba(ipart
Part
p1084
(dp1085
g7
S'1683ff38af35df750fa7928447db9ec8/fabffd74f296d0c1c3cfcbcb7d43bd66.part'
p1086
sg9
S'fabffd74f296d0c1c3cfcbcb7d43bd66'
p1087
sg11
L2097152L
sba(ipart
Part
p1088
(dp1089
g7
S'1683ff38af35df750fa7928447db9ec8/6a81a2f1b03c16207509ec5356dfa684.part'
p1090
sg9
S'6a81a2f1b03c16207509ec5356dfa684'
p1091
sg11
L2621440L
sba(ipart
Part
p1092
(dp1093
g7
S'1683ff38af35df750fa7928447db9ec8/61fa31b396272e477d96854786cfa61d.part'
p1094
sg9
S'61fa31b396272e477d96854786cfa61d'
p1095
sg11
L3145728L
sba(ipart
Part
p1096
(dp1097
g7
S'1683ff38af35df750fa7928447db9ec8/a364584db2236783e28b93115615a4e0.part'
p1098
sg9
S'a364584db2236783e28b93115615a4e0'
p1099
sg11
L3369489L
sba(ipart
Part
p1100
(dp1101
g7
S'1683ff38af35df750fa7928447db9ec8/455a0e1455d2cc455d2c632aed6c94fc.part'
p1102
sg9
S'455a0e1455d2cc455d2c632aed6c94fc'
p1103
sg11
L524288L
sba(ipart
Part
p1104
(dp1105
g7
S'1683ff38af35df750fa7928447db9ec8/0029b09e0bb15e51001ff11c6bf83f09.part'
p1106
sg9
S'0029b09e0bb15e51001ff11c6bf83f09'
p1107
sg11
L1048576L
sba(ipart
Part
p1108
(dp1109
g7
S'1683ff38af35df750fa7928447db9ec8/28a27bf3ca3e2b2e38157eb6bc609a0e.part'
p1110
sg9
S'28a27bf3ca3e2b2e38157eb6bc609a0e'
p1111
sg11
L1572864L
sba(ipart
Part
p1112
(dp1113
g7
S'1683ff38af35df750fa7928447db9ec8/fabffd74f296d0c1c3cfcbcb7d43bd66.part'
p1114
sg9
S'fabffd74f296d0c1c3cfcbcb7d43bd66'
p1115
sg11
L2097152L
sba(ipart
Part
p1116
(dp1117
g7
S'1683ff38af35df750fa7928447db9ec8/6a81a2f1b03c16207509ec5356dfa684.part'
p1118
sg9
S'6a81a2f1b03c16207509ec5356dfa684'
p1119
sg11
L2621440L
sba(ipart
Part
p1120
(dp1121
g7
S'1683ff38af35df750fa7928447db9ec8/61fa31b396272e477d96854786cfa61d.part'
p1122
sg9
S'61fa31b396272e477d96854786cfa61d'
p1123
sg11
L3145728L
sba(ipart
Part
p1124
(dp1125
g7
S'1683ff38af35df750fa7928447db9ec8/a364584db2236783e28b93115615a4e0.part'
p1126
sg9
S'a364584db2236783e28b93115615a4e0'
p1127
sg11
L3369489L
sba(ipart
Part
p1128
(dp1129
g7
S'1683ff38af35df750fa7928447db9ec8/455a0e1455d2cc455d2c632aed6c94fc.part'
p1130
sg9
S'455a0e1455d2cc455d2c632aed6c94fc'
p1131
sg11
L524288L
sba(ipart
Part
p1132
(dp1133
g7
S'1683ff38af35df750fa7928447db9ec8/0029b09e0bb15e51001ff11c6bf83f09.part'
p1134
sg9
S'0029b09e0bb15e51001ff11c6bf83f09'
p1135
sg11
L1048576L
sba(ipart
Part
p1136
(dp1137
g7
S'1683ff38af35df750fa7928447db9ec8/28a27bf3ca3e2b2e38157eb6bc609a0e.part'
p1138
sg9
S'28a27bf3ca3e2b2e38157eb6bc609a0e'
p1139
sg11
L1572864L
sba(ipart
Part
p1140
(dp1141
g7
S'1683ff38af35df750fa7928447db9ec8/fabffd74f296d0c1c3cfcbcb7d43bd66.part'
p1142
sg9
S'fabffd74f296d0c1c3cfcbcb7d43bd66'
p1143
sg11
L2097152L
sba(ipart
Part
p1144
(dp1145
g7
S'1683ff38af35df750fa7928447db9ec8/6a81a2f1b03c16207509ec5356dfa684.part'
p1146
sg9
S'6a81a2f1b03c16207509ec5356dfa684'
p1147
sg11
L2621440L
sba(ipart
Part
p1148
(dp1149
g7
S'1683ff38af35df750fa7928447db9ec8/61fa31b396272e477d96854786cfa61d.part'
p1150
sg9
S'61fa31b396272e477d96854786cfa61d'
p1151
sg11
L3145728L
sba(ipart
Part
p1152
(dp1153
g7
S'1683ff38af35df750fa7928447db9ec8/a364584db2236783e28b93115615a4e0.part'
p1154
sg9
S'a364584db2236783e28b93115615a4e0'
p1155
sg11
L3369489L
sba(ipart
Part
p1156
(dp1157
g7
S'1683ff38af35df750fa7928447db9ec8/455a0e1455d2cc455d2c632aed6c94fc.part'
p1158
sg9
S'455a0e1455d2cc455d2c632aed6c94fc'
p1159
sg11
L524288L
sba(ipart
Part
p1160
(dp1161
g7
S'1683ff38af35df750fa7928447db9ec8/0029b09e0bb15e51001ff11c6bf83f09.part'
p1162
sg9
S'0029b09e0bb15e51001ff11c6bf83f09'
p1163
sg11
L1048576L
sba(ipart
Part
p1164
(dp1165
g7
S'1683ff38af35df750fa7928447db9ec8/28a27bf3ca3e2b2e38157eb6bc609a0e.part'
p1166
sg9
S'28a27bf3ca3e2b2e38157eb6bc609a0e'
p1167
sg11
L1572864L
sba(ipart
Part
p1168
(dp1169
g7
S'1683ff38af35df750fa7928447db9ec8/fabffd74f296d0c1c3cfcbcb7d43bd66.part'
p1170
sg9
S'fabffd74f296d0c1c3cfcbcb7d43bd66'
p1171
sg11
L2097152L
sba(ipart
Part
p1172
(dp1173
g7
S'1683ff38af35df750fa7928447db9ec8/6a81a2f1b03c16207509ec5356dfa684.part'
p1174
sg9
S'6a81a2f1b03c16207509ec5356dfa684'
p1175
sg11
L2621440L
sba(ipart
Part
p1176
(dp1177
g7
S'1683ff38af35df750fa7928447db9ec8/61fa31b396272e477d96854786cfa61d.part'
p1178
sg9
S'61fa31b396272e477d96854786cfa61d'
p1179
sg11
L3145728L
sba(ipart
Part
p1180
(dp1181
g7
S'1683ff38af35df750fa7928447db9ec8/a364584db2236783e28b93115615a4e0.part'
p1182
sg9
S'a364584db2236783e28b93115615a4e0'
p1183
sg11
L3369489L
sba(ipart
Part
p1184
(dp1185
g7
S'1683ff38af35df750fa7928447db9ec8/455a0e1455d2cc455d2c632aed6c94fc.part'
p1186
sg9
S'455a0e1455d2cc455d2c632aed6c94fc'
p1187
sg11
L524288L
sba(ipart
Part
p1188
(dp1189
g7
S'1683ff38af35df750fa7928447db9ec8/0029b09e0bb15e51001ff11c6bf83f09.part'
p1190
sg9
S'0029b09e0bb15e51001ff11c6bf83f09'
p1191
sg11
L1048576L
sba(ipart
Part
p1192
(dp1193
g7
S'1683ff38af35df750fa7928447db9ec8/28a27bf3ca3e2b2e38157eb6bc609a0e.part'
p1194
sg9
S'28a27bf3ca3e2b2e38157eb6bc609a0e'
p1195
sg11
L1572864L
sba(ipart
Part
p1196
(dp1197
g7
S'1683ff38af35df750fa7928447db9ec8/fabffd74f296d0c1c3cfcbcb7d43bd66.part'
p1198
sg9
S'fabffd74f296d0c1c3cfcbcb7d43bd66'
p1199
sg11
L2097152L
sba(ipart
Part
p1200
(dp1201
g7
S'1683ff38af35df750fa7928447db9ec8/6a81a2f1b03c16207509ec5356dfa684.part'
p1202
sg9
S'6a81a2f1b03c16207509ec5356dfa684'
p1203
sg11
L2621440L
sba(ipart
Part
p1204
(dp1205
g7
S'1683ff38af35df750fa7928447db9ec8/61fa31b396272e477d96854786cfa61d.part'
p1206
sg9
S'61fa31b396272e477d96854786cfa61d'
p1207
sg11
L3145728L
sba(ipart
Part
p1208
(dp1209
g7
S'1683ff38af35df750fa7928447db9ec8/a364584db2236783e28b93115615a4e0.part'
p1210
sg9
S'a364584db2236783e28b93115615a4e0'
p1211
sg11
L3369489L
sba(ipart
Part
p1212
(dp1213
g7
S'1683ff38af35df750fa7928447db9ec8/455a0e1455d2cc455d2c632aed6c94fc.part'
p1214
sg9
S'455a0e1455d2cc455d2c632aed6c94fc'
p1215
sg11
L524288L
sba(ipart
Part
p1216
(dp1217
g7
S'1683ff38af35df750fa7928447db9ec8/0029b09e0bb15e51001ff11c6bf83f09.part'
p1218
sg9
S'0029b09e0bb15e51001ff11c6bf83f09'
p1219
sg11
L1048576L
sba(ipart
Part
p1220
(dp1221
g7
S'1683ff38af35df750fa7928447db9ec8/28a27bf3ca3e2b2e38157eb6bc609a0e.part'
p1222
sg9
S'28a27bf3ca3e2b2e38157eb6bc609a0e'
p1223
sg11
L1572864L
sba(ipart
Part
p1224
(dp1225
g7
S'1683ff38af35df750fa7928447db9ec8/fabffd74f296d0c1c3cfcbcb7d43bd66.part'
p1226
sg9
S'fabffd74f296d0c1c3cfcbcb7d43bd66'
p1227
sg11
L2097152L
sba(ipart
Part
p1228
(dp1229
g7
S'1683ff38af35df750fa7928447db9ec8/6a81a2f1b03c16207509ec5356dfa684.part'
p1230
sg9
S'6a81a2f1b03c16207509ec5356dfa684'
p1231
sg11
L2621440L
sba(ipart
Part
p1232
(dp1233
g7
S'1683ff38af35df750fa7928447db9ec8/61fa31b396272e477d96854786cfa61d.part'
p1234
sg9
S'61fa31b396272e477d96854786cfa61d'
p1235
sg11
L3145728L
sba(ipart
Part
p1236
(dp1237
g7
S'1683ff38af35df750fa7928447db9ec8/a364584db2236783e28b93115615a4e0.part'
p1238
sg9
S'a364584db2236783e28b93115615a4e0'
p1239
sg11
L3369489L
sba(ipart
Part
p1240
(dp1241
g7
S'1683ff38af35df750fa7928447db9ec8/455a0e1455d2cc455d2c632aed6c94fc.part'
p1242
sg9
S'455a0e1455d2cc455d2c632aed6c94fc'
p1243
sg11
L524288L
sba(ipart
Part
p1244
(dp1245
g7
S'1683ff38af35df750fa7928447db9ec8/0029b09e0bb15e51001ff11c6bf83f09.part'
p1246
sg9
S'0029b09e0bb15e51001ff11c6bf83f09'
p1247
sg11
L1048576L
sba(ipart
Part
p1248
(dp1249
g7
S'1683ff38af35df750fa7928447db9ec8/28a27bf3ca3e2b2e38157eb6bc609a0e.part'
p1250
sg9
S'28a27bf3ca3e2b2e38157eb6bc609a0e'
p1251
sg11
L1572864L
sba(ipart
Part
p1252
(dp1253
g7
S'1683ff38af35df750fa7928447db9ec8/fabffd74f296d0c1c3cfcbcb7d43bd66.part'
p1254
sg9
S'fabffd74f296d0c1c3cfcbcb7d43bd66'
p1255
sg11
L2097152L
sba(ipart
Part
p1256
(dp1257
g7
S'1683ff38af35df750fa7928447db9ec8/6a81a2f1b03c16207509ec5356dfa684.part'
p1258
sg9
S'6a81a2f1b03c16207509ec5356dfa684'
p1259
sg11
L2621440L
sba(ipart
Part
p1260
(dp1261
g7
S'1683ff38af35df750fa7928447db9ec8/61fa31b396272e477d96854786cfa61d.part'
p1262
sg9
S'61fa31b396272e477d96854786cfa61d'
p1263
sg11
L3145728L
sba(ipart
Part
p1264
(dp1265
g7
S'1683ff38af35df750fa7928447db9ec8/a364584db2236783e28b93115615a4e0.part'
p1266
sg9
S'a364584db2236783e28b93115615a4e0'
p1267
sg11
L3369489L
sba(ipart
Part
p1268
(dp1269
g7
S'1683ff38af35df750fa7928447db9ec8/455a0e1455d2cc455d2c632aed6c94fc.part'
p1270
sg9
S'455a0e1455d2cc455d2c632aed6c94fc'
p1271
sg11
L524288L
sba(ipart
Part
p1272
(dp1273
g7
S'1683ff38af35df750fa7928447db9ec8/0029b09e0bb15e51001ff11c6bf83f09.part'
p1274
sg9
S'0029b09e0bb15e51001ff11c6bf83f09'
p1275
sg11
L1048576L
sba(ipart
Part
p1276
(dp1277
g7
S'1683ff38af35df750fa7928447db9ec8/28a27bf3ca3e2b2e38157eb6bc609a0e.part'
p1278
sg9
S'28a27bf3ca3e2b2e38157eb6bc609a0e'
p1279
sg11
L1572864L
sba(ipart
Part
p1280
(dp1281
g7
S'1683ff38af35df750fa7928447db9ec8/fabffd74f296d0c1c3cfcbcb7d43bd66.part'
p1282
sg9
S'fabffd74f296d0c1c3cfcbcb7d43bd66'
p1283
sg11
L2097152L
sba(ipart
Part
p1284
(dp1285
g7
S'1683ff38af35df750fa7928447db9ec8/6a81a2f1b03c16207509ec5356dfa684.part'
p1286
sg9
S'6a81a2f1b03c16207509ec5356dfa684'
p1287
sg11
L2621440L
sba(ipart
Part
p1288
(dp1289
g7
S'1683ff38af35df750fa7928447db9ec8/61fa31b396272e477d96854786cfa61d.part'
p1290
sg9
S'61fa31b396272e477d96854786cfa61d'
p1291
sg11
L3145728L
sba(ipart
Part
p1292
(dp1293
g7
S'1683ff38af35df750fa7928447db9ec8/a364584db2236783e28b93115615a4e0.part'
p1294
sg9
S'a364584db2236783e28b93115615a4e0'
p1295
sg11
L3369489L
sba(ipart
Part
p1296
(dp1297
g7
S'1683ff38af35df750fa7928447db9ec8/455a0e1455d2cc455d2c632aed6c94fc.part'
p1298
sg9
S'455a0e1455d2cc455d2c632aed6c94fc'
p1299
sg11
L524288L
sba(ipart
Part
p1300
(dp1301
g7
S'1683ff38af35df750fa7928447db9ec8/0029b09e0bb15e51001ff11c6bf83f09.part'
p1302
sg9
S'0029b09e0bb15e51001ff11c6bf83f09'
p1303
sg11
L1048576L
sba(ipart
Part
p1304
(dp1305
g7
S'1683ff38af35df750fa7928447db9ec8/28a27bf3ca3e2b2e38157eb6bc609a0e.part'
p1306
sg9
S'28a27bf3ca3e2b2e38157eb6bc609a0e'
p1307
sg11
L1572864L
sba(ipart
Part
p1308
(dp1309
g7
S'1683ff38af35df750fa7928447db9ec8/fabffd74f296d0c1c3cfcbcb7d43bd66.part'
p1310
sg9
S'fabffd74f296d0c1c3cfcbcb7d43bd66'
p1311
sg11
L2097152L
sba(ipart
Part
p1312
(dp1313
g7
S'1683ff38af35df750fa7928447db9ec8/6a81a2f1b03c16207509ec5356dfa684.part'
p1314
sg9
S'6a81a2f1b03c16207509ec5356dfa684'
p1315
sg11
L2621440L
sba(ipart
Part
p1316
(dp1317
g7
S'1683ff38af35df750fa7928447db9ec8/61fa31b396272e477d96854786cfa61d.part'
p1318
sg9
S'61fa31b396272e477d96854786cfa61d'
p1319
sg11
L3145728L
sba(ipart
Part
p1320
(dp1321
g7
S'1683ff38af35df750fa7928447db9ec8/a364584db2236783e28b93115615a4e0.part'
p1322
sg9
S'a364584db2236783e28b93115615a4e0'
p1323
sg11
L3369489L
sba(ipart
Part
p1324
(dp1325
g7
S'1683ff38af35df750fa7928447db9ec8/455a0e1455d2cc455d2c632aed6c94fc.part'
p1326
sg9
S'455a0e1455d2cc455d2c632aed6c94fc'
p1327
sg11
L524288L
sba(ipart
Part
p1328
(dp1329
g7
S'1683ff38af35df750fa7928447db9ec8/0029b09e0bb15e51001ff11c6bf83f09.part'
p1330
sg9
S'0029b09e0bb15e51001ff11c6bf83f09'
p1331
sg11
L1048576L
sba(ipart
Part
p1332
(dp1333
g7
S'1683ff38af35df750fa7928447db9ec8/28a27bf3ca3e2b2e38157eb6bc609a0e.part'
p1334
sg9
S'28a27bf3ca3e2b2e38157eb6bc609a0e'
p1335
sg11
L1572864L
sba(ipart
Part
p1336
(dp1337
g7
S'1683ff38af35df750fa7928447db9ec8/fabffd74f296d0c1c3cfcbcb7d43bd66.part'
p1338
sg9
S'fabffd74f296d0c1c3cfcbcb7d43bd66'
p1339
sg11
L2097152L
sba(ipart
Part
p1340
(dp1341
g7
S'1683ff38af35df750fa7928447db9ec8/6a81a2f1b03c16207509ec5356dfa684.part'
p1342
sg9
S'6a81a2f1b03c16207509ec5356dfa684'
p1343
sg11
L2621440L
sba(ipart
Part
p1344
(dp1345
g7
S'1683ff38af35df750fa7928447db9ec8/61fa31b396272e477d96854786cfa61d.part'
p1346
sg9
S'61fa31b396272e477d96854786cfa61d'
p1347
sg11
L3145728L
sba(ipart
Part
p1348
(dp1349
g7
S'1683ff38af35df750fa7928447db9ec8/a364584db2236783e28b93115615a4e0.part'
p1350
sg9
S'a364584db2236783e28b93115615a4e0'
p1351
sg11
L3369489L
sba(ipart
Part
p1352
(dp1353
g7
S'1683ff38af35df750fa7928447db9ec8/455a0e1455d2cc455d2c632aed6c94fc.part'
p1354
sg9
S'455a0e1455d2cc455d2c632aed6c94fc'
p1355
sg11
L524288L
sba(ipart
Part
p1356
(dp1357
g7
S'1683ff38af35df750fa7928447db9ec8/0029b09e0bb15e51001ff11c6bf83f09.part'
p1358
sg9
S'0029b09e0bb15e51001ff11c6bf83f09'
p1359
sg11
L1048576L
sba(ipart
Part
p1360
(dp1361
g7
S'1683ff38af35df750fa7928447db9ec8/28a27bf3ca3e2b2e38157eb6bc609a0e.part'
p1362
sg9
S'28a27bf3ca3e2b2e38157eb6bc609a0e'
p1363
sg11
L1572864L
sba(ipart
Part
p1364
(dp1365
g7
S'1683ff38af35df750fa7928447db9ec8/fabffd74f296d0c1c3cfcbcb7d43bd66.part'
p1366
sg9
S'fabffd74f296d0c1c3cfcbcb7d43bd66'
p1367
sg11
L2097152L
sba(ipart
Part
p1368
(dp1369
g7
S'1683ff38af35df750fa7928447db9ec8/6a81a2f1b03c16207509ec5356dfa684.part'
p1370
sg9
S'6a81a2f1b03c16207509ec5356dfa684'
p1371
sg11
L2621440L
sba(ipart
Part
p1372
(dp1373
g7
S'1683ff38af35df750fa7928447db9ec8/61fa31b396272e477d96854786cfa61d.part'
p1374
sg9
S'61fa31b396272e477d96854786cfa61d'
p1375
sg11
L3145728L
sba(ipart
Part
p1376
(dp1377
g7
S'1683ff38af35df750fa7928447db9ec8/a364584db2236783e28b93115615a4e0.part'
p1378
sg9
S'a364584db2236783e28b93115615a4e0'
p1379
sg11
L3369489L
sba(ipart
Part
p1380
(dp1381
g7
S'1683ff38af35df750fa7928447db9ec8/455a0e1455d2cc455d2c632aed6c94fc.part'
p1382
sg9
S'455a0e1455d2cc455d2c632aed6c94fc'
p1383
sg11
L524288L
sba(ipart
Part
p1384
(dp1385
g7
S'1683ff38af35df750fa7928447db9ec8/0029b09e0bb15e51001ff11c6bf83f09.part'
p1386
sg9
S'0029b09e0bb15e51001ff11c6bf83f09'
p1387
sg11
L1048576L
sba(ipart
Part
p1388
(dp1389
g7
S'1683ff38af35df750fa7928447db9ec8/28a27bf3ca3e2b2e38157eb6bc609a0e.part'
p1390
sg9
S'28a27bf3ca3e2b2e38157eb6bc609a0e'
p1391
sg11
L1572864L
sba(ipart
Part
p1392
(dp1393
g7
S'1683ff38af35df750fa7928447db9ec8/fabffd74f296d0c1c3cfcbcb7d43bd66.part'
p1394
sg9
S'fabffd74f296d0c1c3cfcbcb7d43bd66'
p1395
sg11
L2097152L
sba(ipart
Part
p1396
(dp1397
g7
S'1683ff38af35df750fa7928447db9ec8/6a81a2f1b03c16207509ec5356dfa684.part'
p1398
sg9
S'6a81a2f1b03c16207509ec5356dfa684'
p1399
sg11
L2621440L
sba(ipart
Part
p1400
(dp1401
g7
S'1683ff38af35df750fa7928447db9ec8/61fa31b396272e477d96854786cfa61d.part'
p1402
sg9
S'61fa31b396272e477d96854786cfa61d'
p1403
sg11
L3145728L
sba(ipart
Part
p1404
(dp1405
g7
S'1683ff38af35df750fa7928447db9ec8/a364584db2236783e28b93115615a4e0.part'
p1406
sg9
S'a364584db2236783e28b93115615a4e0'
p1407
sg11
L3369489L
sba(ipart
Part
p1408
(dp1409
g7
S'1683ff38af35df750fa7928447db9ec8/455a0e1455d2cc455d2c632aed6c94fc.part'
p1410
sg9
S'455a0e1455d2cc455d2c632aed6c94fc'
p1411
sg11
L524288L
sba(ipart
Part
p1412
(dp1413
g7
S'1683ff38af35df750fa7928447db9ec8/0029b09e0bb15e51001ff11c6bf83f09.part'
p1414
sg9
S'0029b09e0bb15e51001ff11c6bf83f09'
p1415
sg11
L1048576L
sba(ipart
Part
p1416
(dp1417
g7
S'1683ff38af35df750fa7928447db9ec8/28a27bf3ca3e2b2e38157eb6bc609a0e.part'
p1418
sg9
S'28a27bf3ca3e2b2e38157eb6bc609a0e'
p1419
sg11
L1572864L
sba(ipart
Part
p1420
(dp1421
g7
S'1683ff38af35df750fa7928447db9ec8/fabffd74f296d0c1c3cfcbcb7d43bd66.part'
p1422
sg9
S'fabffd74f296d0c1c3cfcbcb7d43bd66'
p1423
sg11
L2097152L
sba(ipart
Part
p1424
(dp1425
g7
S'1683ff38af35df750fa7928447db9ec8/6a81a2f1b03c16207509ec5356dfa684.part'
p1426
sg9
S'6a81a2f1b03c16207509ec5356dfa684'
p1427
sg11
L2621440L
sba(ipart
Part
p1428
(dp1429
g7
S'1683ff38af35df750fa7928447db9ec8/61fa31b396272e477d96854786cfa61d.part'
p1430
sg9
S'61fa31b396272e477d96854786cfa61d'
p1431
sg11
L3145728L
sba(ipart
Part
p1432
(dp1433
g7
S'1683ff38af35df750fa7928447db9ec8/a364584db2236783e28b93115615a4e0.part'
p1434
sg9
S'a364584db2236783e28b93115615a4e0'
p1435
sg11
L3369489L
sba(ipart
Part
p1436
(dp1437
g7
S'1683ff38af35df750fa7928447db9ec8/455a0e1455d2cc455d2c632aed6c94fc.part'
p1438
sg9
S'455a0e1455d2cc455d2c632aed6c94fc'
p1439
sg11
L524288L
sba(ipart
Part
p1440
(dp1441
g7
S'1683ff38af35df750fa7928447db9ec8/0029b09e0bb15e51001ff11c6bf83f09.part'
p1442
sg9
S'0029b09e0bb15e51001ff11c6bf83f09'
p1443
sg11
L1048576L
sba(ipart
Part
p1444
(dp1445
g7
S'1683ff38af35df750fa7928447db9ec8/28a27bf3ca3e2b2e38157eb6bc609a0e.part'
p1446
sg9
S'28a27bf3ca3e2b2e38157eb6bc609a0e'
p1447
sg11
L1572864L
sba(ipart
Part
p1448
(dp1449
g7
S'1683ff38af35df750fa7928447db9ec8/fabffd74f296d0c1c3cfcbcb7d43bd66.part'
p1450
sg9
S'fabffd74f296d0c1c3cfcbcb7d43bd66'
p1451
sg11
L2097152L
sba(ipart
Part
p1452
(dp1453
g7
S'1683ff38af35df750fa7928447db9ec8/6a81a2f1b03c16207509ec5356dfa684.part'
p1454
sg9
S'6a81a2f1b03c16207509ec5356dfa684'
p1455
sg11
L2621440L
sba(ipart
Part
p1456
(dp1457
g7
S'1683ff38af35df750fa7928447db9ec8/61fa31b396272e477d96854786cfa61d.part'
p1458
sg9
S'61fa31b396272e477d96854786cfa61d'
p1459
sg11
L3145728L
sba(ipart
Part
p1460
(dp1461
g7
S'1683ff38af35df750fa7928447db9ec8/a364584db2236783e28b93115615a4e0.part'
p1462
sg9
S'a364584db2236783e28b93115615a4e0'
p1463
sg11
L3369489L
sba(ipart
Part
p1464
(dp1465
g7
S'1683ff38af35df750fa7928447db9ec8/455a0e1455d2cc455d2c632aed6c94fc.part'
p1466
sg9
S'455a0e1455d2cc455d2c632aed6c94fc'
p1467
sg11
L524288L
sba(ipart
Part
p1468
(dp1469
g7
S'1683ff38af35df750fa7928447db9ec8/0029b09e0bb15e51001ff11c6bf83f09.part'
p1470
sg9
S'0029b09e0bb15e51001ff11c6bf83f09'
p1471
sg11
L1048576L
sba(ipart
Part
p1472
(dp1473
g7
S'1683ff38af35df750fa7928447db9ec8/28a27bf3ca3e2b2e38157eb6bc609a0e.part'
p1474
sg9
S'28a27bf3ca3e2b2e38157eb6bc609a0e'
p1475
sg11
L1572864L
sba(ipart
Part
p1476
(dp1477
g7
S'1683ff38af35df750fa7928447db9ec8/fabffd74f296d0c1c3cfcbcb7d43bd66.part'
p1478
sg9
S'fabffd74f296d0c1c3cfcbcb7d43bd66'
p1479
sg11
L2097152L
sba(ipart
Part
p1480
(dp1481
g7
S'1683ff38af35df750fa7928447db9ec8/6a81a2f1b03c16207509ec5356dfa684.part'
p1482
sg9
S'6a81a2f1b03c16207509ec5356dfa684'
p1483
sg11
L2621440L
sba(ipart
Part
p1484
(dp1485
g7
S'1683ff38af35df750fa7928447db9ec8/61fa31b396272e477d96854786cfa61d.part'
p1486
sg9
S'61fa31b396272e477d96854786cfa61d'
p1487
sg11
L3145728L
sba(ipart
Part
p1488
(dp1489
g7
S'1683ff38af35df750fa7928447db9ec8/a364584db2236783e28b93115615a4e0.part'
p1490
sg9
S'a364584db2236783e28b93115615a4e0'
p1491
sg11
L3369489L
sba(ipart
Part
p1492
(dp1493
g7
S'1683ff38af35df750fa7928447db9ec8/455a0e1455d2cc455d2c632aed6c94fc.part'
p1494
sg9
S'455a0e1455d2cc455d2c632aed6c94fc'
p1495
sg11
L524288L
sba(ipart
Part
p1496
(dp1497
g7
S'1683ff38af35df750fa7928447db9ec8/0029b09e0bb15e51001ff11c6bf83f09.part'
p1498
sg9
S'0029b09e0bb15e51001ff11c6bf83f09'
p1499
sg11
L1048576L
sba(ipart
Part
p1500
(dp1501
g7
S'1683ff38af35df750fa7928447db9ec8/28a27bf3ca3e2b2e38157eb6bc609a0e.part'
p1502
sg9
S'28a27bf3ca3e2b2e38157eb6bc609a0e'
p1503
sg11
L1572864L
sba(ipart
Part
p1504
(dp1505
g7
S'1683ff38af35df750fa7928447db9ec8/fabffd74f296d0c1c3cfcbcb7d43bd66.part'
p1506
sg9
S'fabffd74f296d0c1c3cfcbcb7d43bd66'
p1507
sg11
L2097152L
sba(ipart
Part
p1508
(dp1509
g7
S'1683ff38af35df750fa7928447db9ec8/6a81a2f1b03c16207509ec5356dfa684.part'
p1510
sg9
S'6a81a2f1b03c16207509ec5356dfa684'
p1511
sg11
L2621440L
sba(ipart
Part
p1512
(dp1513
g7
S'1683ff38af35df750fa7928447db9ec8/61fa31b396272e477d96854786cfa61d.part'
p1514
sg9
S'61fa31b396272e477d96854786cfa61d'
p1515
sg11
L3145728L
sba(ipart
Part
p1516
(dp1517
g7
S'1683ff38af35df750fa7928447db9ec8/a364584db2236783e28b93115615a4e0.part'
p1518
sg9
S'a364584db2236783e28b93115615a4e0'
p1519
sg11
L3369489L
sba(ipart
Part
p1520
(dp1521
g7
S'1683ff38af35df750fa7928447db9ec8/455a0e1455d2cc455d2c632aed6c94fc.part'
p1522
sg9
S'455a0e1455d2cc455d2c632aed6c94fc'
p1523
sg11
L524288L
sba(ipart
Part
p1524
(dp1525
g7
S'1683ff38af35df750fa7928447db9ec8/0029b09e0bb15e51001ff11c6bf83f09.part'
p1526
sg9
S'0029b09e0bb15e51001ff11c6bf83f09'
p1527
sg11
L1048576L
sba(ipart
Part
p1528
(dp1529
g7
S'1683ff38af35df750fa7928447db9ec8/28a27bf3ca3e2b2e38157eb6bc609a0e.part'
p1530
sg9
S'28a27bf3ca3e2b2e38157eb6bc609a0e'
p1531
sg11
L1572864L
sba(ipart
Part
p1532
(dp1533
g7
S'1683ff38af35df750fa7928447db9ec8/fabffd74f296d0c1c3cfcbcb7d43bd66.part'
p1534
sg9
S'fabffd74f296d0c1c3cfcbcb7d43bd66'
p1535
sg11
L2097152L
sba(ipart
Part
p1536
(dp1537
g7
S'1683ff38af35df750fa7928447db9ec8/6a81a2f1b03c16207509ec5356dfa684.part'
p1538
sg9
S'6a81a2f1b03c16207509ec5356dfa684'
p1539
sg11
L2621440L
sba(ipart
Part
p1540
(dp1541
g7
S'1683ff38af35df750fa7928447db9ec8/61fa31b396272e477d96854786cfa61d.part'
p1542
sg9
S'61fa31b396272e477d96854786cfa61d'
p1543
sg11
L3145728L
sba(ipart
Part
p1544
(dp1545
g7
S'1683ff38af35df750fa7928447db9ec8/a364584db2236783e28b93115615a4e0.part'
p1546
sg9
S'a364584db2236783e28b93115615a4e0'
p1547
sg11
L3369489L
sba(ipart
Part
p1548
(dp1549
g7
S'1683ff38af35df750fa7928447db9ec8/455a0e1455d2cc455d2c632aed6c94fc.part'
p1550
sg9
S'455a0e1455d2cc455d2c632aed6c94fc'
p1551
sg11
L524288L
sba(ipart
Part
p1552
(dp1553
g7
S'1683ff38af35df750fa7928447db9ec8/0029b09e0bb15e51001ff11c6bf83f09.part'
p1554
sg9
S'0029b09e0bb15e51001ff11c6bf83f09'
p1555
sg11
L1048576L
sba(ipart
Part
p1556
(dp1557
g7
S'1683ff38af35df750fa7928447db9ec8/28a27bf3ca3e2b2e38157eb6bc609a0e.part'
p1558
sg9
S'28a27bf3ca3e2b2e38157eb6bc609a0e'
p1559
sg11
L1572864L
sba(ipart
Part
p1560
(dp1561
g7
S'1683ff38af35df750fa7928447db9ec8/fabffd74f296d0c1c3cfcbcb7d43bd66.part'
p1562
sg9
S'fabffd74f296d0c1c3cfcbcb7d43bd66'
p1563
sg11
L2097152L
sba(ipart
Part
p1564
(dp1565
g7
S'1683ff38af35df750fa7928447db9ec8/6a81a2f1b03c16207509ec5356dfa684.part'
p1566
sg9
S'6a81a2f1b03c16207509ec5356dfa684'
p1567
sg11
L2621440L
sba(ipart
Part
p1568
(dp1569
g7
S'1683ff38af35df750fa7928447db9ec8/61fa31b396272e477d96854786cfa61d.part'
p1570
sg9
S'61fa31b396272e477d96854786cfa61d'
p1571
sg11
L3145728L
sba(ipart
Part
p1572
(dp1573
g7
S'1683ff38af35df750fa7928447db9ec8/a364584db2236783e28b93115615a4e0.part'
p1574
sg9
S'a364584db2236783e28b93115615a4e0'
p1575
sg11
L3369489L
sba(ipart
Part
p1576
(dp1577
g7
S'1683ff38af35df750fa7928447db9ec8/455a0e1455d2cc455d2c632aed6c94fc.part'
p1578
sg9
S'455a0e1455d2cc455d2c632aed6c94fc'
p1579
sg11
L524288L
sba(ipart
Part
p1580
(dp1581
g7
S'1683ff38af35df750fa7928447db9ec8/0029b09e0bb15e51001ff11c6bf83f09.part'
p1582
sg9
S'0029b09e0bb15e51001ff11c6bf83f09'
p1583
sg11
L1048576L
sba(ipart
Part
p1584
(dp1585
g7
S'1683ff38af35df750fa7928447db9ec8/28a27bf3ca3e2b2e38157eb6bc609a0e.part'
p1586
sg9
S'28a27bf3ca3e2b2e38157eb6bc609a0e'
p1587
sg11
L1572864L
sba(ipart
Part
p1588
(dp1589
g7
S'1683ff38af35df750fa7928447db9ec8/fabffd74f296d0c1c3cfcbcb7d43bd66.part'
p1590
sg9
S'fabffd74f296d0c1c3cfcbcb7d43bd66'
p1591
sg11
L2097152L
sba(ipart
Part
p1592
(dp1593
g7
S'1683ff38af35df750fa7928447db9ec8/6a81a2f1b03c16207509ec5356dfa684.part'
p1594
sg9
S'6a81a2f1b03c16207509ec5356dfa684'
p1595
sg11
L2621440L
sba(ipart
Part
p1596
(dp1597
g7
S'1683ff38af35df750fa7928447db9ec8/61fa31b396272e477d96854786cfa61d.part'
p1598
sg9
S'61fa31b396272e477d96854786cfa61d'
p1599
sg11
L3145728L
sba(ipart
Part
p1600
(dp1601
g7
S'1683ff38af35df750fa7928447db9ec8/a364584db2236783e28b93115615a4e0.part'
p1602
sg9
S'a364584db2236783e28b93115615a4e0'
p1603
sg11
L3369489L
sba(ipart
Part
p1604
(dp1605
g7
S'1683ff38af35df750fa7928447db9ec8/455a0e1455d2cc455d2c632aed6c94fc.part'
p1606
sg9
S'455a0e1455d2cc455d2c632aed6c94fc'
p1607
sg11
L524288L
sba(ipart
Part
p1608
(dp1609
g7
S'1683ff38af35df750fa7928447db9ec8/0029b09e0bb15e51001ff11c6bf83f09.part'
p1610
sg9
S'0029b09e0bb15e51001ff11c6bf83f09'
p1611
sg11
L1048576L
sba(ipart
Part
p1612
(dp1613
g7
S'1683ff38af35df750fa7928447db9ec8/28a27bf3ca3e2b2e38157eb6bc609a0e.part'
p1614
sg9
S'28a27bf3ca3e2b2e38157eb6bc609a0e'
p1615
sg11
L1572864L
sba(ipart
Part
p1616
(dp1617
g7
S'1683ff38af35df750fa7928447db9ec8/fabffd74f296d0c1c3cfcbcb7d43bd66.part'
p1618
sg9
S'fabffd74f296d0c1c3cfcbcb7d43bd66'
p1619
sg11
L2097152L
sba(ipart
Part
p1620
(dp1621
g7
S'1683ff38af35df750fa7928447db9ec8/6a81a2f1b03c16207509ec5356dfa684.part'
p1622
sg9
S'6a81a2f1b03c16207509ec5356dfa684'
p1623
sg11
L2621440L
sba(ipart
Part
p1624
(dp1625
g7
S'1683ff38af35df750fa7928447db9ec8/61fa31b396272e477d96854786cfa61d.part'
p1626
sg9
S'61fa31b396272e477d96854786cfa61d'
p1627
sg11
L3145728L
sba(ipart
Part
p1628
(dp1629
g7
S'1683ff38af35df750fa7928447db9ec8/a364584db2236783e28b93115615a4e0.part'
p1630
sg9
S'a364584db2236783e28b93115615a4e0'
p1631
sg11
L3369489L
sba(ipart
Part
p1632
(dp1633
g7
S'1683ff38af35df750fa7928447db9ec8/455a0e1455d2cc455d2c632aed6c94fc.part'
p1634
sg9
S'455a0e1455d2cc455d2c632aed6c94fc'
p1635
sg11
L524288L
sba(ipart
Part
p1636
(dp1637
g7
S'1683ff38af35df750fa7928447db9ec8/0029b09e0bb15e51001ff11c6bf83f09.part'
p1638
sg9
S'0029b09e0bb15e51001ff11c6bf83f09'
p1639
sg11
L1048576L
sba(ipart
Part
p1640
(dp1641
g7
S'1683ff38af35df750fa7928447db9ec8/28a27bf3ca3e2b2e38157eb6bc609a0e.part'
p1642
sg9
S'28a27bf3ca3e2b2e38157eb6bc609a0e'
p1643
sg11
L1572864L
sba(ipart
Part
p1644
(dp1645
g7
S'1683ff38af35df750fa7928447db9ec8/fabffd74f296d0c1c3cfcbcb7d43bd66.part'
p1646
sg9
S'fabffd74f296d0c1c3cfcbcb7d43bd66'
p1647
sg11
L2097152L
sba(ipart
Part
p1648
(dp1649
g7
S'1683ff38af35df750fa7928447db9ec8/6a81a2f1b03c16207509ec5356dfa684.part'
p1650
sg9
S'6a81a2f1b03c16207509ec5356dfa684'
p1651
sg11
L2621440L
sba(ipart
Part
p1652
(dp1653
g7
S'1683ff38af35df750fa7928447db9ec8/61fa31b396272e477d96854786cfa61d.part'
p1654
sg9
S'61fa31b396272e477d96854786cfa61d'
p1655
sg11
L3145728L
sba(ipart
Part
p1656
(dp1657
g7
S'1683ff38af35df750fa7928447db9ec8/a364584db2236783e28b93115615a4e0.part'
p1658
sg9
S'a364584db2236783e28b93115615a4e0'
p1659
sg11
L3369489L
sba(ipart
Part
p1660
(dp1661
g7
S'1683ff38af35df750fa7928447db9ec8/455a0e1455d2cc455d2c632aed6c94fc.part'
p1662
sg9
S'455a0e1455d2cc455d2c632aed6c94fc'
p1663
sg11
L524288L
sba(ipart
Part
p1664
(dp1665
g7
S'1683ff38af35df750fa7928447db9ec8/0029b09e0bb15e51001ff11c6bf83f09.part'
p1666
sg9
S'0029b09e0bb15e51001ff11c6bf83f09'
p1667
sg11
L1048576L
sba(ipart
Part
p1668
(dp1669
g7
S'1683ff38af35df750fa7928447db9ec8/28a27bf3ca3e2b2e38157eb6bc609a0e.part'
p1670
sg9
S'28a27bf3ca3e2b2e38157eb6bc609a0e'
p1671
sg11
L1572864L
sba(ipart
Part
p1672
(dp1673
g7
S'1683ff38af35df750fa7928447db9ec8/fabffd74f296d0c1c3cfcbcb7d43bd66.part'
p1674
sg9
S'fabffd74f296d0c1c3cfcbcb7d43bd66'
p1675
sg11
L2097152L
sba(ipart
Part
p1676
(dp1677
g7
S'1683ff38af35df750fa7928447db9ec8/6a81a2f1b03c16207509ec5356dfa684.part'
p1678
sg9
S'6a81a2f1b03c16207509ec5356dfa684'
p1679
sg11
L2621440L
sba(ipart
Part
p1680
(dp1681
g7
S'1683ff38af35df750fa7928447db9ec8/61fa31b396272e477d96854786cfa61d.part'
p1682
sg9
S'61fa31b396272e477d96854786cfa61d'
p1683
sg11
L3145728L
sba(ipart
Part
p1684
(dp1685
g7
S'1683ff38af35df750fa7928447db9ec8/a364584db2236783e28b93115615a4e0.part'
p1686
sg9
S'a364584db2236783e28b93115615a4e0'
p1687
sg11
L3369489L
sba(ipart
Part
p1688
(dp1689
g7
S'1683ff38af35df750fa7928447db9ec8/455a0e1455d2cc455d2c632aed6c94fc.part'
p1690
sg9
S'455a0e1455d2cc455d2c632aed6c94fc'
p1691
sg11
L524288L
sba(ipart
Part
p1692
(dp1693
g7
S'1683ff38af35df750fa7928447db9ec8/0029b09e0bb15e51001ff11c6bf83f09.part'
p1694
sg9
S'0029b09e0bb15e51001ff11c6bf83f09'
p1695
sg11
L1048576L
sba(ipart
Part
p1696
(dp1697
g7
S'1683ff38af35df750fa7928447db9ec8/28a27bf3ca3e2b2e38157eb6bc609a0e.part'
p1698
sg9
S'28a27bf3ca3e2b2e38157eb6bc609a0e'
p1699
sg11
L1572864L
sba(ipart
Part
p1700
(dp1701
g7
S'1683ff38af35df750fa7928447db9ec8/fabffd74f296d0c1c3cfcbcb7d43bd66.part'
p1702
sg9
S'fabffd74f296d0c1c3cfcbcb7d43bd66'
p1703
sg11
L2097152L
sba(ipart
Part
p1704
(dp1705
g7
S'1683ff38af35df750fa7928447db9ec8/6a81a2f1b03c16207509ec5356dfa684.part'
p1706
sg9
S'6a81a2f1b03c16207509ec5356dfa684'
p1707
sg11
L2621440L
sba(ipart
Part
p1708
(dp1709
g7
S'1683ff38af35df750fa7928447db9ec8/61fa31b396272e477d96854786cfa61d.part'
p1710
sg9
S'61fa31b396272e477d96854786cfa61d'
p1711
sg11
L3145728L
sba(ipart
Part
p1712
(dp1713
g7
S'1683ff38af35df750fa7928447db9ec8/a364584db2236783e28b93115615a4e0.part'
p1714
sg9
S'a364584db2236783e28b93115615a4e0'
p1715
sg11
L3369489L
sba(ipart
Part
p1716
(dp1717
g7
S'1683ff38af35df750fa7928447db9ec8/455a0e1455d2cc455d2c632aed6c94fc.part'
p1718
sg9
S'455a0e1455d2cc455d2c632aed6c94fc'
p1719
sg11
L524288L
sba(ipart
Part
p1720
(dp1721
g7
S'1683ff38af35df750fa7928447db9ec8/0029b09e0bb15e51001ff11c6bf83f09.part'
p1722
sg9
S'0029b09e0bb15e51001ff11c6bf83f09'
p1723
sg11
L1048576L
sba(ipart
Part
p1724
(dp1725
g7
S'1683ff38af35df750fa7928447db9ec8/28a27bf3ca3e2b2e38157eb6bc609a0e.part'
p1726
sg9
S'28a27bf3ca3e2b2e38157eb6bc609a0e'
p1727
sg11
L1572864L
sba(ipart
Part
p1728
(dp1729
g7
S'1683ff38af35df750fa7928447db9ec8/fabffd74f296d0c1c3cfcbcb7d43bd66.part'
p1730
sg9
S'fabffd74f296d0c1c3cfcbcb7d43bd66'
p1731
sg11
L2097152L
sba(ipart
Part
p1732
(dp1733
g7
S'1683ff38af35df750fa7928447db9ec8/6a81a2f1b03c16207509ec5356dfa684.part'
p1734
sg9
S'6a81a2f1b03c16207509ec5356dfa684'
p1735
sg11
L2621440L
sba(ipart
Part
p1736
(dp1737
g7
S'1683ff38af35df750fa7928447db9ec8/61fa31b396272e477d96854786cfa61d.part'
p1738
sg9
S'61fa31b396272e477d96854786cfa61d'
p1739
sg11
L3145728L
sba(ipart
Part
p1740
(dp1741
g7
S'1683ff38af35df750fa7928447db9ec8/a364584db2236783e28b93115615a4e0.part'
p1742
sg9
S'a364584db2236783e28b93115615a4e0'
p1743
sg11
L3369489L
sba(ipart
Part
p1744
(dp1745
g7
S'1683ff38af35df750fa7928447db9ec8/455a0e1455d2cc455d2c632aed6c94fc.part'
p1746
sg9
S'455a0e1455d2cc455d2c632aed6c94fc'
p1747
sg11
L524288L
sba(ipart
Part
p1748
(dp1749
g7
S'1683ff38af35df750fa7928447db9ec8/0029b09e0bb15e51001ff11c6bf83f09.part'
p1750
sg9
S'0029b09e0bb15e51001ff11c6bf83f09'
p1751
sg11
L1048576L
sba(ipart
Part
p1752
(dp1753
g7
S'1683ff38af35df750fa7928447db9ec8/28a27bf3ca3e2b2e38157eb6bc609a0e.part'
p1754
sg9
S'28a27bf3ca3e2b2e38157eb6bc609a0e'
p1755
sg11
L1572864L
sba(ipart
Part
p1756
(dp1757
g7
S'1683ff38af35df750fa7928447db9ec8/fabffd74f296d0c1c3cfcbcb7d43bd66.part'
p1758
sg9
S'fabffd74f296d0c1c3cfcbcb7d43bd66'
p1759
sg11
L2097152L
sba(ipart
Part
p1760
(dp1761
g7
S'1683ff38af35df750fa7928447db9ec8/6a81a2f1b03c16207509ec5356dfa684.part'
p1762
sg9
S'6a81a2f1b03c16207509ec5356dfa684'
p1763
sg11
L2621440L
sba(ipart
Part
p1764
(dp1765
g7
S'1683ff38af35df750fa7928447db9ec8/61fa31b396272e477d96854786cfa61d.part'
p1766
sg9
S'61fa31b396272e477d96854786cfa61d'
p1767
sg11
L3145728L
sba(ipart
Part
p1768
(dp1769
g7
S'1683ff38af35df750fa7928447db9ec8/a364584db2236783e28b93115615a4e0.part'
p1770
sg9
S'a364584db2236783e28b93115615a4e0'
p1771
sg11
L3369489L
sba(ipart
Part
p1772
(dp1773
g7
S'1683ff38af35df750fa7928447db9ec8/455a0e1455d2cc455d2c632aed6c94fc.part'
p1774
sg9
S'455a0e1455d2cc455d2c632aed6c94fc'
p1775
sg11
L524288L
sba(ipart
Part
p1776
(dp1777
g7
S'1683ff38af35df750fa7928447db9ec8/0029b09e0bb15e51001ff11c6bf83f09.part'
p1778
sg9
S'0029b09e0bb15e51001ff11c6bf83f09'
p1779
sg11
L1048576L
sba(ipart
Part
p1780
(dp1781
g7
S'1683ff38af35df750fa7928447db9ec8/28a27bf3ca3e2b2e38157eb6bc609a0e.part'
p1782
sg9
S'28a27bf3ca3e2b2e38157eb6bc609a0e'
p1783
sg11
L1572864L
sba(ipart
Part
p1784
(dp1785
g7
S'1683ff38af35df750fa7928447db9ec8/fabffd74f296d0c1c3cfcbcb7d43bd66.part'
p1786
sg9
S'fabffd74f296d0c1c3cfcbcb7d43bd66'
p1787
sg11
L2097152L
sba(ipart
Part
p1788
(dp1789
g7
S'1683ff38af35df750fa7928447db9ec8/6a81a2f1b03c16207509ec5356dfa684.part'
p1790
sg9
S'6a81a2f1b03c16207509ec5356dfa684'
p1791
sg11
L2621440L
sba(ipart
Part
p1792
(dp1793
g7
S'1683ff38af35df750fa7928447db9ec8/61fa31b396272e477d96854786cfa61d.part'
p1794
sg9
S'61fa31b396272e477d96854786cfa61d'
p1795
sg11
L3145728L
sba(ipart
Part
p1796
(dp1797
g7
S'1683ff38af35df750fa7928447db9ec8/a364584db2236783e28b93115615a4e0.part'
p1798
sg9
S'a364584db2236783e28b93115615a4e0'
p1799
sg11
L3369489L
sba(ipart
Part
p1800
(dp1801
g7
S'1683ff38af35df750fa7928447db9ec8/455a0e1455d2cc455d2c632aed6c94fc.part'
p1802
sg9
S'455a0e1455d2cc455d2c632aed6c94fc'
p1803
sg11
L524288L
sba(ipart
Part
p1804
(dp1805
g7
S'1683ff38af35df750fa7928447db9ec8/0029b09e0bb15e51001ff11c6bf83f09.part'
p1806
sg9
S'0029b09e0bb15e51001ff11c6bf83f09'
p1807
sg11
L1048576L
sba(ipart
Part
p1808
(dp1809
g7
S'1683ff38af35df750fa7928447db9ec8/28a27bf3ca3e2b2e38157eb6bc609a0e.part'
p1810
sg9
S'28a27bf3ca3e2b2e38157eb6bc609a0e'
p1811
sg11
L1572864L
sba(ipart
Part
p1812
(dp1813
g7
S'1683ff38af35df750fa7928447db9ec8/fabffd74f296d0c1c3cfcbcb7d43bd66.part'
p1814
sg9
S'fabffd74f296d0c1c3cfcbcb7d43bd66'
p1815
sg11
L2097152L
sba(ipart
Part
p1816
(dp1817
g7
S'1683ff38af35df750fa7928447db9ec8/6a81a2f1b03c16207509ec5356dfa684.part'
p1818
sg9
S'6a81a2f1b03c16207509ec5356dfa684'
p1819
sg11
L2621440L
sba(ipart
Part
p1820
(dp1821
g7
S'1683ff38af35df750fa7928447db9ec8/61fa31b396272e477d96854786cfa61d.part'
p1822
sg9
S'61fa31b396272e477d96854786cfa61d'
p1823
sg11
L3145728L
sba(ipart
Part
p1824
(dp1825
g7
S'1683ff38af35df750fa7928447db9ec8/a364584db2236783e28b93115615a4e0.part'
p1826
sg9
S'a364584db2236783e28b93115615a4e0'
p1827
sg11
L3369489L
sba(ipart
Part
p1828
(dp1829
g7
S'1683ff38af35df750fa7928447db9ec8/455a0e1455d2cc455d2c632aed6c94fc.part'
p1830
sg9
S'455a0e1455d2cc455d2c632aed6c94fc'
p1831
sg11
L524288L
sba(ipart
Part
p1832
(dp1833
g7
S'1683ff38af35df750fa7928447db9ec8/0029b09e0bb15e51001ff11c6bf83f09.part'
p1834
sg9
S'0029b09e0bb15e51001ff11c6bf83f09'
p1835
sg11
L1048576L
sba(ipart
Part
p1836
(dp1837
g7
S'1683ff38af35df750fa7928447db9ec8/28a27bf3ca3e2b2e38157eb6bc609a0e.part'
p1838
sg9
S'28a27bf3ca3e2b2e38157eb6bc609a0e'
p1839
sg11
L1572864L
sba(ipart
Part
p1840
(dp1841
g7
S'1683ff38af35df750fa7928447db9ec8/fabffd74f296d0c1c3cfcbcb7d43bd66.part'
p1842
sg9
S'fabffd74f296d0c1c3cfcbcb7d43bd66'
p1843
sg11
L2097152L
sba(ipart
Part
p1844
(dp1845
g7
S'1683ff38af35df750fa7928447db9ec8/6a81a2f1b03c16207509ec5356dfa684.part'
p1846
sg9
S'6a81a2f1b03c16207509ec5356dfa684'
p1847
sg11
L2621440L
sba(ipart
Part
p1848
(dp1849
g7
S'1683ff38af35df750fa7928447db9ec8/61fa31b396272e477d96854786cfa61d.part'
p1850
sg9
S'61fa31b396272e477d96854786cfa61d'
p1851
sg11
L3145728L
sba(ipart
Part
p1852
(dp1853
g7
S'1683ff38af35df750fa7928447db9ec8/a364584db2236783e28b93115615a4e0.part'
p1854
sg9
S'a364584db2236783e28b93115615a4e0'
p1855
sg11
L3369489L
sba(ipart
Part
p1856
(dp1857
g7
S'1683ff38af35df750fa7928447db9ec8/455a0e1455d2cc455d2c632aed6c94fc.part'
p1858
sg9
S'455a0e1455d2cc455d2c632aed6c94fc'
p1859
sg11
L524288L
sba(ipart
Part
p1860
(dp1861
g7
S'1683ff38af35df750fa7928447db9ec8/0029b09e0bb15e51001ff11c6bf83f09.part'
p1862
sg9
S'0029b09e0bb15e51001ff11c6bf83f09'
p1863
sg11
L1048576L
sba(ipart
Part
p1864
(dp1865
g7
S'1683ff38af35df750fa7928447db9ec8/28a27bf3ca3e2b2e38157eb6bc609a0e.part'
p1866
sg9
S'28a27bf3ca3e2b2e38157eb6bc609a0e'
p1867
sg11
L1572864L
sba(ipart
Part
p1868
(dp1869
g7
S'1683ff38af35df750fa7928447db9ec8/fabffd74f296d0c1c3cfcbcb7d43bd66.part'
p1870
sg9
S'fabffd74f296d0c1c3cfcbcb7d43bd66'
p1871
sg11
L2097152L
sba(ipart
Part
p1872
(dp1873
g7
S'1683ff38af35df750fa7928447db9ec8/6a81a2f1b03c16207509ec5356dfa684.part'
p1874
sg9
S'6a81a2f1b03c16207509ec5356dfa684'
p1875
sg11
L2621440L
sba(ipart
Part
p1876
(dp1877
g7
S'1683ff38af35df750fa7928447db9ec8/61fa31b396272e477d96854786cfa61d.part'
p1878
sg9
S'61fa31b396272e477d96854786cfa61d'
p1879
sg11
L3145728L
sba(ipart
Part
p1880
(dp1881
g7
S'1683ff38af35df750fa7928447db9ec8/a364584db2236783e28b93115615a4e0.part'
p1882
sg9
S'a364584db2236783e28b93115615a4e0'
p1883
sg11
L3369489L
sba(ipart
Part
p1884
(dp1885
g7
S'1683ff38af35df750fa7928447db9ec8/455a0e1455d2cc455d2c632aed6c94fc.part'
p1886
sg9
S'455a0e1455d2cc455d2c632aed6c94fc'
p1887
sg11
L524288L
sba(ipart
Part
p1888
(dp1889
g7
S'1683ff38af35df750fa7928447db9ec8/0029b09e0bb15e51001ff11c6bf83f09.part'
p1890
sg9
S'0029b09e0bb15e51001ff11c6bf83f09'
p1891
sg11
L1048576L
sba(ipart
Part
p1892
(dp1893
g7
S'1683ff38af35df750fa7928447db9ec8/28a27bf3ca3e2b2e38157eb6bc609a0e.part'
p1894
sg9
S'28a27bf3ca3e2b2e38157eb6bc609a0e'
p1895
sg11
L1572864L
sba(ipart
Part
p1896
(dp1897
g7
S'1683ff38af35df750fa7928447db9ec8/fabffd74f296d0c1c3cfcbcb7d43bd66.part'
p1898
sg9
S'fabffd74f296d0c1c3cfcbcb7d43bd66'
p1899
sg11
L2097152L
sba(ipart
Part
p1900
(dp1901
g7
S'1683ff38af35df750fa7928447db9ec8/6a81a2f1b03c16207509ec5356dfa684.part'
p1902
sg9
S'6a81a2f1b03c16207509ec5356dfa684'
p1903
sg11
L2621440L
sba(ipart
Part
p1904
(dp1905
g7
S'1683ff38af35df750fa7928447db9ec8/61fa31b396272e477d96854786cfa61d.part'
p1906
sg9
S'61fa31b396272e477d96854786cfa61d'
p1907
sg11
L3145728L
sba(ipart
Part
p1908
(dp1909
g7
S'1683ff38af35df750fa7928447db9ec8/a364584db2236783e28b93115615a4e0.part'
p1910
sg9
S'a364584db2236783e28b93115615a4e0'
p1911
sg11
L3369489L
sba(ipart
Part
p1912
(dp1913
g7
S'1683ff38af35df750fa7928447db9ec8/455a0e1455d2cc455d2c632aed6c94fc.part'
p1914
sg9
S'455a0e1455d2cc455d2c632aed6c94fc'
p1915
sg11
L524288L
sba(ipart
Part
p1916
(dp1917
g7
S'1683ff38af35df750fa7928447db9ec8/0029b09e0bb15e51001ff11c6bf83f09.part'
p1918
sg9
S'0029b09e0bb15e51001ff11c6bf83f09'
p1919
sg11
L1048576L
sba(ipart
Part
p1920
(dp1921
g7
S'1683ff38af35df750fa7928447db9ec8/28a27bf3ca3e2b2e38157eb6bc609a0e.part'
p1922
sg9
S'28a27bf3ca3e2b2e38157eb6bc609a0e'
p1923
sg11
L1572864L
sba(ipart
Part
p1924
(dp1925
g7
S'1683ff38af35df750fa7928447db9ec8/fabffd74f296d0c1c3cfcbcb7d43bd66.part'
p1926
sg9
S'fabffd74f296d0c1c3cfcbcb7d43bd66'
p1927
sg11
L2097152L
sba(ipart
Part
p1928
(dp1929
g7
S'1683ff38af35df750fa7928447db9ec8/6a81a2f1b03c16207509ec5356dfa684.part'
p1930
sg9
S'6a81a2f1b03c16207509ec5356dfa684'
p1931
sg11
L2621440L
sba(ipart
Part
p1932
(dp1933
g7
S'1683ff38af35df750fa7928447db9ec8/61fa31b396272e477d96854786cfa61d.part'
p1934
sg9
S'61fa31b396272e477d96854786cfa61d'
p1935
sg11
L3145728L
sba(ipart
Part
p1936
(dp1937
g7
S'1683ff38af35df750fa7928447db9ec8/a364584db2236783e28b93115615a4e0.part'
p1938
sg9
S'a364584db2236783e28b93115615a4e0'
p1939
sg11
L3369489L
sba(ipart
Part
p1940
(dp1941
g7
S'1683ff38af35df750fa7928447db9ec8/455a0e1455d2cc455d2c632aed6c94fc.part'
p1942
sg9
S'455a0e1455d2cc455d2c632aed6c94fc'
p1943
sg11
L524288L
sba(ipart
Part
p1944
(dp1945
g7
S'1683ff38af35df750fa7928447db9ec8/0029b09e0bb15e51001ff11c6bf83f09.part'
p1946
sg9
S'0029b09e0bb15e51001ff11c6bf83f09'
p1947
sg11
L1048576L
sba(ipart
Part
p1948
(dp1949
g7
S'1683ff38af35df750fa7928447db9ec8/28a27bf3ca3e2b2e38157eb6bc609a0e.part'
p1950
sg9
S'28a27bf3ca3e2b2e38157eb6bc609a0e'
p1951
sg11
L1572864L
sba(ipart
Part
p1952
(dp1953
g7
S'1683ff38af35df750fa7928447db9ec8/fabffd74f296d0c1c3cfcbcb7d43bd66.part'
p1954
sg9
S'fabffd74f296d0c1c3cfcbcb7d43bd66'
p1955
sg11
L2097152L
sba(ipart
Part
p1956
(dp1957
g7
S'1683ff38af35df750fa7928447db9ec8/6a81a2f1b03c16207509ec5356dfa684.part'
p1958
sg9
S'6a81a2f1b03c16207509ec5356dfa684'
p1959
sg11
L2621440L
sba(ipart
Part
p1960
(dp1961
g7
S'1683ff38af35df750fa7928447db9ec8/61fa31b396272e477d96854786cfa61d.part'
p1962
sg9
S'61fa31b396272e477d96854786cfa61d'
p1963
sg11
L3145728L
sba(ipart
Part
p1964
(dp1965
g7
S'1683ff38af35df750fa7928447db9ec8/a364584db2236783e28b93115615a4e0.part'
p1966
sg9
S'a364584db2236783e28b93115615a4e0'
p1967
sg11
L3369489L
sba(ipart
Part
p1968
(dp1969
g7
S'1683ff38af35df750fa7928447db9ec8/455a0e1455d2cc455d2c632aed6c94fc.part'
p1970
sg9
S'455a0e1455d2cc455d2c632aed6c94fc'
p1971
sg11
L524288L
sba(ipart
Part
p1972
(dp1973
g7
S'1683ff38af35df750fa7928447db9ec8/0029b09e0bb15e51001ff11c6bf83f09.part'
p1974
sg9
S'0029b09e0bb15e51001ff11c6bf83f09'
p1975
sg11
L1048576L
sba(ipart
Part
p1976
(dp1977
g7
S'1683ff38af35df750fa7928447db9ec8/28a27bf3ca3e2b2e38157eb6bc609a0e.part'
p1978
sg9
S'28a27bf3ca3e2b2e38157eb6bc609a0e'
p1979
sg11
L1572864L
sba(ipart
Part
p1980
(dp1981
g7
S'1683ff38af35df750fa7928447db9ec8/fabffd74f296d0c1c3cfcbcb7d43bd66.part'
p1982
sg9
S'fabffd74f296d0c1c3cfcbcb7d43bd66'
p1983
sg11
L2097152L
sba(ipart
Part
p1984
(dp1985
g7
S'1683ff38af35df750fa7928447db9ec8/6a81a2f1b03c16207509ec5356dfa684.part'
p1986
sg9
S'6a81a2f1b03c16207509ec5356dfa684'
p1987
sg11
L2621440L
sba(ipart
Part
p1988
(dp1989
g7
S'1683ff38af35df750fa7928447db9ec8/61fa31b396272e477d96854786cfa61d.part'
p1990
sg9
S'61fa31b396272e477d96854786cfa61d'
p1991
sg11
L3145728L
sba(ipart
Part
p1992
(dp1993
g7
S'1683ff38af35df750fa7928447db9ec8/a364584db2236783e28b93115615a4e0.part'
p1994
sg9
S'a364584db2236783e28b93115615a4e0'
p1995
sg11
L3369489L
sba(ipart
Part
p1996
(dp1997
g7
S'1683ff38af35df750fa7928447db9ec8/455a0e1455d2cc455d2c632aed6c94fc.part'
p1998
sg9
S'455a0e1455d2cc455d2c632aed6c94fc'
p1999
sg11
L524288L
sba(ipart
Part
p2000
(dp2001
g7
S'1683ff38af35df750fa7928447db9ec8/0029b09e0bb15e51001ff11c6bf83f09.part'
p2002
sg9
S'0029b09e0bb15e51001ff11c6bf83f09'
p2003
sg11
L1048576L
sba(ipart
Part
p2004
(dp2005
g7
S'1683ff38af35df750fa7928447db9ec8/28a27bf3ca3e2b2e38157eb6bc609a0e.part'
p2006
sg9
S'28a27bf3ca3e2b2e38157eb6bc609a0e'
p2007
sg11
L1572864L
sba(ipart
Part
p2008
(dp2009
g7
S'1683ff38af35df750fa7928447db9ec8/fabffd74f296d0c1c3cfcbcb7d43bd66.part'
p2010
sg9
S'fabffd74f296d0c1c3cfcbcb7d43bd66'
p2011
sg11
L2097152L
sba(ipart
Part
p2012
(dp2013
g7
S'1683ff38af35df750fa7928447db9ec8/6a81a2f1b03c16207509ec5356dfa684.part'
p2014
sg9
S'6a81a2f1b03c16207509ec5356dfa684'
p2015
sg11
L2621440L
sba(ipart
Part
p2016
(dp2017
g7
S'1683ff38af35df750fa7928447db9ec8/61fa31b396272e477d96854786cfa61d.part'
p2018
sg9
S'61fa31b396272e477d96854786cfa61d'
p2019
sg11
L3145728L
sba(ipart
Part
p2020
(dp2021
g7
S'1683ff38af35df750fa7928447db9ec8/a364584db2236783e28b93115615a4e0.part'
p2022
sg9
S'a364584db2236783e28b93115615a4e0'
p2023
sg11
L3369489L
sba(ipart
Part
p2024
(dp2025
g7
S'1683ff38af35df750fa7928447db9ec8/455a0e1455d2cc455d2c632aed6c94fc.part'
p2026
sg9
S'455a0e1455d2cc455d2c632aed6c94fc'
p2027
sg11
L524288L
sba(ipart
Part
p2028
(dp2029
g7
S'1683ff38af35df750fa7928447db9ec8/0029b09e0bb15e51001ff11c6bf83f09.part'
p2030
sg9
S'0029b09e0bb15e51001ff11c6bf83f09'
p2031
sg11
L1048576L
sba(ipart
Part
p2032
(dp2033
g7
S'1683ff38af35df750fa7928447db9ec8/28a27bf3ca3e2b2e38157eb6bc609a0e.part'
p2034
sg9
S'28a27bf3ca3e2b2e38157eb6bc609a0e'
p2035
sg11
L1572864L
sba(ipart
Part
p2036
(dp2037
g7
S'1683ff38af35df750fa7928447db9ec8/fabffd74f296d0c1c3cfcbcb7d43bd66.part'
p2038
sg9
S'fabffd74f296d0c1c3cfcbcb7d43bd66'
p2039
sg11
L2097152L
sba(ipart
Part
p2040
(dp2041
g7
S'1683ff38af35df750fa7928447db9ec8/6a81a2f1b03c16207509ec5356dfa684.part'
p2042
sg9
S'6a81a2f1b03c16207509ec5356dfa684'
p2043
sg11
L2621440L
sba(ipart
Part
p2044
(dp2045
g7
S'1683ff38af35df750fa7928447db9ec8/61fa31b396272e477d96854786cfa61d.part'
p2046
sg9
S'61fa31b396272e477d96854786cfa61d'
p2047
sg11
L3145728L
sba(ipart
Part
p2048
(dp2049
g7
S'1683ff38af35df750fa7928447db9ec8/a364584db2236783e28b93115615a4e0.part'
p2050
sg9
S'a364584db2236783e28b93115615a4e0'
p2051
sg11
L3369489L
sba(ipart
Part
p2052
(dp2053
g7
S'1683ff38af35df750fa7928447db9ec8/455a0e1455d2cc455d2c632aed6c94fc.part'
p2054
sg9
S'455a0e1455d2cc455d2c632aed6c94fc'
p2055
sg11
L524288L
sba(ipart
Part
p2056
(dp2057
g7
S'1683ff38af35df750fa7928447db9ec8/0029b09e0bb15e51001ff11c6bf83f09.part'
p2058
sg9
S'0029b09e0bb15e51001ff11c6bf83f09'
p2059
sg11
L1048576L
sba(ipart
Part
p2060
(dp2061
g7
S'1683ff38af35df750fa7928447db9ec8/28a27bf3ca3e2b2e38157eb6bc609a0e.part'
p2062
sg9
S'28a27bf3ca3e2b2e38157eb6bc609a0e'
p2063
sg11
L1572864L
sba(ipart
Part
p2064
(dp2065
g7
S'1683ff38af35df750fa7928447db9ec8/fabffd74f296d0c1c3cfcbcb7d43bd66.part'
p2066
sg9
S'fabffd74f296d0c1c3cfcbcb7d43bd66'
p2067
sg11
L2097152L
sba(ipart
Part
p2068
(dp2069
g7
S'1683ff38af35df750fa7928447db9ec8/6a81a2f1b03c16207509ec5356dfa684.part'
p2070
sg9
S'6a81a2f1b03c16207509ec5356dfa684'
p2071
sg11
L2621440L
sba(ipart
Part
p2072
(dp2073
g7
S'1683ff38af35df750fa7928447db9ec8/61fa31b396272e477d96854786cfa61d.part'
p2074
sg9
S'61fa31b396272e477d96854786cfa61d'
p2075
sg11
L3145728L
sba(ipart
Part
p2076
(dp2077
g7
S'1683ff38af35df750fa7928447db9ec8/a364584db2236783e28b93115615a4e0.part'
p2078
sg9
S'a364584db2236783e28b93115615a4e0'
p2079
sg11
L3369489L
sba(ipart
Part
p2080
(dp2081
g7
S'1683ff38af35df750fa7928447db9ec8/455a0e1455d2cc455d2c632aed6c94fc.part'
p2082
sg9
S'455a0e1455d2cc455d2c632aed6c94fc'
p2083
sg11
L524288L
sba(ipart
Part
p2084
(dp2085
g7
S'1683ff38af35df750fa7928447db9ec8/0029b09e0bb15e51001ff11c6bf83f09.part'
p2086
sg9
S'0029b09e0bb15e51001ff11c6bf83f09'
p2087
sg11
L1048576L
sba(ipart
Part
p2088
(dp2089
g7
S'1683ff38af35df750fa7928447db9ec8/28a27bf3ca3e2b2e38157eb6bc609a0e.part'
p2090
sg9
S'28a27bf3ca3e2b2e38157eb6bc609a0e'
p2091
sg11
L1572864L
sba(ipart
Part
p2092
(dp2093
g7
S'1683ff38af35df750fa7928447db9ec8/fabffd74f296d0c1c3cfcbcb7d43bd66.part'
p2094
sg9
S'fabffd74f296d0c1c3cfcbcb7d43bd66'
p2095
sg11
L2097152L
sba(ipart
Part
p2096
(dp2097
g7
S'1683ff38af35df750fa7928447db9ec8/6a81a2f1b03c16207509ec5356dfa684.part'
p2098
sg9
S'6a81a2f1b03c16207509ec5356dfa684'
p2099
sg11
L2621440L
sba(ipart
Part
p2100
(dp2101
g7
S'1683ff38af35df750fa7928447db9ec8/61fa31b396272e477d96854786cfa61d.part'
p2102
sg9
S'61fa31b396272e477d96854786cfa61d'
p2103
sg11
L3145728L
sba(ipart
Part
p2104
(dp2105
g7
S'1683ff38af35df750fa7928447db9ec8/a364584db2236783e28b93115615a4e0.part'
p2106
sg9
S'a364584db2236783e28b93115615a4e0'
p2107
sg11
L3369489L
sba(ipart
Part
p2108
(dp2109
g7
S'1683ff38af35df750fa7928447db9ec8/455a0e1455d2cc455d2c632aed6c94fc.part'
p2110
sg9
S'455a0e1455d2cc455d2c632aed6c94fc'
p2111
sg11
L524288L
sba(ipart
Part
p2112
(dp2113
g7
S'1683ff38af35df750fa7928447db9ec8/0029b09e0bb15e51001ff11c6bf83f09.part'
p2114
sg9
S'0029b09e0bb15e51001ff11c6bf83f09'
p2115
sg11
L1048576L
sba(ipart
Part
p2116
(dp2117
g7
S'1683ff38af35df750fa7928447db9ec8/28a27bf3ca3e2b2e38157eb6bc609a0e.part'
p2118
sg9
S'28a27bf3ca3e2b2e38157eb6bc609a0e'
p2119
sg11
L1572864L
sba(ipart
Part
p2120
(dp2121
g7
S'1683ff38af35df750fa7928447db9ec8/fabffd74f296d0c1c3cfcbcb7d43bd66.part'
p2122
sg9
S'fabffd74f296d0c1c3cfcbcb7d43bd66'
p2123
sg11
L2097152L
sba(ipart
Part
p2124
(dp2125
g7
S'1683ff38af35df750fa7928447db9ec8/6a81a2f1b03c16207509ec5356dfa684.part'
p2126
sg9
S'6a81a2f1b03c16207509ec5356dfa684'
p2127
sg11
L2621440L
sba(ipart
Part
p2128
(dp2129
g7
S'1683ff38af35df750fa7928447db9ec8/61fa31b396272e477d96854786cfa61d.part'
p2130
sg9
S'61fa31b396272e477d96854786cfa61d'
p2131
sg11
L3145728L
sba(ipart
Part
p2132
(dp2133
g7
S'1683ff38af35df750fa7928447db9ec8/a364584db2236783e28b93115615a4e0.part'
p2134
sg9
S'a364584db2236783e28b93115615a4e0'
p2135
sg11
L3369489L
sba(ipart
Part
p2136
(dp2137
g7
S'1683ff38af35df750fa7928447db9ec8/455a0e1455d2cc455d2c632aed6c94fc.part'
p2138
sg9
S'455a0e1455d2cc455d2c632aed6c94fc'
p2139
sg11
L524288L
sba(ipart
Part
p2140
(dp2141
g7
S'1683ff38af35df750fa7928447db9ec8/0029b09e0bb15e51001ff11c6bf83f09.part'
p2142
sg9
S'0029b09e0bb15e51001ff11c6bf83f09'
p2143
sg11
L1048576L
sba(ipart
Part
p2144
(dp2145
g7
S'1683ff38af35df750fa7928447db9ec8/28a27bf3ca3e2b2e38157eb6bc609a0e.part'
p2146
sg9
S'28a27bf3ca3e2b2e38157eb6bc609a0e'
p2147
sg11
L1572864L
sba(ipart
Part
p2148
(dp2149
g7
S'1683ff38af35df750fa7928447db9ec8/fabffd74f296d0c1c3cfcbcb7d43bd66.part'
p2150
sg9
S'fabffd74f296d0c1c3cfcbcb7d43bd66'
p2151
sg11
L2097152L
sba(ipart
Part
p2152
(dp2153
g7
S'1683ff38af35df750fa7928447db9ec8/6a81a2f1b03c16207509ec5356dfa684.part'
p2154
sg9
S'6a81a2f1b03c16207509ec5356dfa684'
p2155
sg11
L2621440L
sba(ipart
Part
p2156
(dp2157
g7
S'1683ff38af35df750fa7928447db9ec8/61fa31b396272e477d96854786cfa61d.part'
p2158
sg9
S'61fa31b396272e477d96854786cfa61d'
p2159
sg11
L3145728L
sba(ipart
Part
p2160
(dp2161
g7
S'1683ff38af35df750fa7928447db9ec8/a364584db2236783e28b93115615a4e0.part'
p2162
sg9
S'a364584db2236783e28b93115615a4e0'
p2163
sg11
L3369489L
sba(ipart
Part
p2164
(dp2165
g7
S'1683ff38af35df750fa7928447db9ec8/455a0e1455d2cc455d2c632aed6c94fc.part'
p2166
sg9
S'455a0e1455d2cc455d2c632aed6c94fc'
p2167
sg11
L524288L
sba(ipart
Part
p2168
(dp2169
g7
S'1683ff38af35df750fa7928447db9ec8/0029b09e0bb15e51001ff11c6bf83f09.part'
p2170
sg9
S'0029b09e0bb15e51001ff11c6bf83f09'
p2171
sg11
L1048576L
sba(ipart
Part
p2172
(dp2173
g7
S'1683ff38af35df750fa7928447db9ec8/28a27bf3ca3e2b2e38157eb6bc609a0e.part'
p2174
sg9
S'28a27bf3ca3e2b2e38157eb6bc609a0e'
p2175
sg11
L1572864L
sba(ipart
Part
p2176
(dp2177
g7
S'1683ff38af35df750fa7928447db9ec8/fabffd74f296d0c1c3cfcbcb7d43bd66.part'
p2178
sg9
S'fabffd74f296d0c1c3cfcbcb7d43bd66'
p2179
sg11
L2097152L
sba(ipart
Part
p2180
(dp2181
g7
S'1683ff38af35df750fa7928447db9ec8/6a81a2f1b03c16207509ec5356dfa684.part'
p2182
sg9
S'6a81a2f1b03c16207509ec5356dfa684'
p2183
sg11
L2621440L
sba(ipart
Part
p2184
(dp2185
g7
S'1683ff38af35df750fa7928447db9ec8/61fa31b396272e477d96854786cfa61d.part'
p2186
sg9
S'61fa31b396272e477d96854786cfa61d'
p2187
sg11
L3145728L
sba(ipart
Part
p2188
(dp2189
g7
S'1683ff38af35df750fa7928447db9ec8/a364584db2236783e28b93115615a4e0.part'
p2190
sg9
S'a364584db2236783e28b93115615a4e0'
p2191
sg11
L3369489L
sba(ipart
Part
p2192
(dp2193
g7
S'1683ff38af35df750fa7928447db9ec8/455a0e1455d2cc455d2c632aed6c94fc.part'
p2194
sg9
S'455a0e1455d2cc455d2c632aed6c94fc'
p2195
sg11
L524288L
sba(ipart
Part
p2196
(dp2197
g7
S'1683ff38af35df750fa7928447db9ec8/0029b09e0bb15e51001ff11c6bf83f09.part'
p2198
sg9
S'0029b09e0bb15e51001ff11c6bf83f09'
p2199
sg11
L1048576L
sba(ipart
Part
p2200
(dp2201
g7
S'1683ff38af35df750fa7928447db9ec8/28a27bf3ca3e2b2e38157eb6bc609a0e.part'
p2202
sg9
S'28a27bf3ca3e2b2e38157eb6bc609a0e'
p2203
sg11
L1572864L
sba(ipart
Part
p2204
(dp2205
g7
S'1683ff38af35df750fa7928447db9ec8/fabffd74f296d0c1c3cfcbcb7d43bd66.part'
p2206
sg9
S'fabffd74f296d0c1c3cfcbcb7d43bd66'
p2207
sg11
L2097152L
sba(ipart
Part
p2208
(dp2209
g7
S'1683ff38af35df750fa7928447db9ec8/6a81a2f1b03c16207509ec5356dfa684.part'
p2210
sg9
S'6a81a2f1b03c16207509ec5356dfa684'
p2211
sg11
L2621440L
sba(ipart
Part
p2212
(dp2213
g7
S'1683ff38af35df750fa7928447db9ec8/61fa31b396272e477d96854786cfa61d.part'
p2214
sg9
S'61fa31b396272e477d96854786cfa61d'
p2215
sg11
L3145728L
sba(ipart
Part
p2216
(dp2217
g7
S'1683ff38af35df750fa7928447db9ec8/a364584db2236783e28b93115615a4e0.part'
p2218
sg9
S'a364584db2236783e28b93115615a4e0'
p2219
sg11
L3369489L
sba(ipart
Part
p2220
(dp2221
g7
S'1683ff38af35df750fa7928447db9ec8/455a0e1455d2cc455d2c632aed6c94fc.part'
p2222
sg9
S'455a0e1455d2cc455d2c632aed6c94fc'
p2223
sg11
L524288L
sba(ipart
Part
p2224
(dp2225
g7
S'1683ff38af35df750fa7928447db9ec8/0029b09e0bb15e51001ff11c6bf83f09.part'
p2226
sg9
S'0029b09e0bb15e51001ff11c6bf83f09'
p2227
sg11
L1048576L
sba(ipart
Part
p2228
(dp2229
g7
S'1683ff38af35df750fa7928447db9ec8/28a27bf3ca3e2b2e38157eb6bc609a0e.part'
p2230
sg9
S'28a27bf3ca3e2b2e38157eb6bc609a0e'
p2231
sg11
L1572864L
sba(ipart
Part
p2232
(dp2233
g7
S'1683ff38af35df750fa7928447db9ec8/fabffd74f296d0c1c3cfcbcb7d43bd66.part'
p2234
sg9
S'fabffd74f296d0c1c3cfcbcb7d43bd66'
p2235
sg11
L2097152L
sba(ipart
Part
p2236
(dp2237
g7
S'1683ff38af35df750fa7928447db9ec8/6a81a2f1b03c16207509ec5356dfa684.part'
p2238
sg9
S'6a81a2f1b03c16207509ec5356dfa684'
p2239
sg11
L2621440L
sba(ipart
Part
p2240
(dp2241
g7
S'1683ff38af35df750fa7928447db9ec8/61fa31b396272e477d96854786cfa61d.part'
p2242
sg9
S'61fa31b396272e477d96854786cfa61d'
p2243
sg11
L3145728L
sba(ipart
Part
p2244
(dp2245
g7
S'1683ff38af35df750fa7928447db9ec8/a364584db2236783e28b93115615a4e0.part'
p2246
sg9
S'a364584db2236783e28b93115615a4e0'
p2247
sg11
L3369489L
sba(ipart
Part
p2248
(dp2249
g7
S'1683ff38af35df750fa7928447db9ec8/455a0e1455d2cc455d2c632aed6c94fc.part'
p2250
sg9
S'455a0e1455d2cc455d2c632aed6c94fc'
p2251
sg11
L524288L
sba(ipart
Part
p2252
(dp2253
g7
S'1683ff38af35df750fa7928447db9ec8/0029b09e0bb15e51001ff11c6bf83f09.part'
p2254
sg9
S'0029b09e0bb15e51001ff11c6bf83f09'
p2255
sg11
L1048576L
sba(ipart
Part
p2256
(dp2257
g7
S'1683ff38af35df750fa7928447db9ec8/28a27bf3ca3e2b2e38157eb6bc609a0e.part'
p2258
sg9
S'28a27bf3ca3e2b2e38157eb6bc609a0e'
p2259
sg11
L1572864L
sba(ipart
Part
p2260
(dp2261
g7
S'1683ff38af35df750fa7928447db9ec8/fabffd74f296d0c1c3cfcbcb7d43bd66.part'
p2262
sg9
S'fabffd74f296d0c1c3cfcbcb7d43bd66'
p2263
sg11
L2097152L
sba(ipart
Part
p2264
(dp2265
g7
S'1683ff38af35df750fa7928447db9ec8/6a81a2f1b03c16207509ec5356dfa684.part'
p2266
sg9
S'6a81a2f1b03c16207509ec5356dfa684'
p2267
sg11
L2621440L
sba(ipart
Part
p2268
(dp2269
g7
S'1683ff38af35df750fa7928447db9ec8/61fa31b396272e477d96854786cfa61d.part'
p2270
sg9
S'61fa31b396272e477d96854786cfa61d'
p2271
sg11
L3145728L
sba(ipart
Part
p2272
(dp2273
g7
S'1683ff38af35df750fa7928447db9ec8/a364584db2236783e28b93115615a4e0.part'
p2274
sg9
S'a364584db2236783e28b93115615a4e0'
p2275
sg11
L3369489L
sba(ipart
Part
p2276
(dp2277
g7
S'1683ff38af35df750fa7928447db9ec8/455a0e1455d2cc455d2c632aed6c94fc.part'
p2278
sg9
S'455a0e1455d2cc455d2c632aed6c94fc'
p2279
sg11
L524288L
sba(ipart
Part
p2280
(dp2281
g7
S'1683ff38af35df750fa7928447db9ec8/0029b09e0bb15e51001ff11c6bf83f09.part'
p2282
sg9
S'0029b09e0bb15e51001ff11c6bf83f09'
p2283
sg11
L1048576L
sba(ipart
Part
p2284
(dp2285
g7
S'1683ff38af35df750fa7928447db9ec8/28a27bf3ca3e2b2e38157eb6bc609a0e.part'
p2286
sg9
S'28a27bf3ca3e2b2e38157eb6bc609a0e'
p2287
sg11
L1572864L
sba(ipart
Part
p2288
(dp2289
g7
S'1683ff38af35df750fa7928447db9ec8/fabffd74f296d0c1c3cfcbcb7d43bd66.part'
p2290
sg9
S'fabffd74f296d0c1c3cfcbcb7d43bd66'
p2291
sg11
L2097152L
sba(ipart
Part
p2292
(dp2293
g7
S'1683ff38af35df750fa7928447db9ec8/6a81a2f1b03c16207509ec5356dfa684.part'
p2294
sg9
S'6a81a2f1b03c16207509ec5356dfa684'
p2295
sg11
L2621440L
sba(ipart
Part
p2296
(dp2297
g7
S'1683ff38af35df750fa7928447db9ec8/61fa31b396272e477d96854786cfa61d.part'
p2298
sg9
S'61fa31b396272e477d96854786cfa61d'
p2299
sg11
L3145728L
sba(ipart
Part
p2300
(dp2301
g7
S'1683ff38af35df750fa7928447db9ec8/a364584db2236783e28b93115615a4e0.part'
p2302
sg9
S'a364584db2236783e28b93115615a4e0'
p2303
sg11
L3369489L
sba(ipart
Part
p2304
(dp2305
g7
S'1683ff38af35df750fa7928447db9ec8/455a0e1455d2cc455d2c632aed6c94fc.part'
p2306
sg9
S'455a0e1455d2cc455d2c632aed6c94fc'
p2307
sg11
L524288L
sba(ipart
Part
p2308
(dp2309
g7
S'1683ff38af35df750fa7928447db9ec8/0029b09e0bb15e51001ff11c6bf83f09.part'
p2310
sg9
S'0029b09e0bb15e51001ff11c6bf83f09'
p2311
sg11
L1048576L
sba(ipart
Part
p2312
(dp2313
g7
S'1683ff38af35df750fa7928447db9ec8/28a27bf3ca3e2b2e38157eb6bc609a0e.part'
p2314
sg9
S'28a27bf3ca3e2b2e38157eb6bc609a0e'
p2315
sg11
L1572864L
sba(ipart
Part
p2316
(dp2317
g7
S'1683ff38af35df750fa7928447db9ec8/fabffd74f296d0c1c3cfcbcb7d43bd66.part'
p2318
sg9
S'fabffd74f296d0c1c3cfcbcb7d43bd66'
p2319
sg11
L2097152L
sba(ipart
Part
p2320
(dp2321
g7
S'1683ff38af35df750fa7928447db9ec8/6a81a2f1b03c16207509ec5356dfa684.part'
p2322
sg9
S'6a81a2f1b03c16207509ec5356dfa684'
p2323
sg11
L2621440L
sba(ipart
Part
p2324
(dp2325
g7
S'1683ff38af35df750fa7928447db9ec8/61fa31b396272e477d96854786cfa61d.part'
p2326
sg9
S'61fa31b396272e477d96854786cfa61d'
p2327
sg11
L3145728L
sba(ipart
Part
p2328
(dp2329
g7
S'1683ff38af35df750fa7928447db9ec8/a364584db2236783e28b93115615a4e0.part'
p2330
sg9
S'a364584db2236783e28b93115615a4e0'
p2331
sg11
L3369489L
sba(ipart
Part
p2332
(dp2333
g7
S'1683ff38af35df750fa7928447db9ec8/455a0e1455d2cc455d2c632aed6c94fc.part'
p2334
sg9
S'455a0e1455d2cc455d2c632aed6c94fc'
p2335
sg11
L524288L
sba(ipart
Part
p2336
(dp2337
g7
S'1683ff38af35df750fa7928447db9ec8/0029b09e0bb15e51001ff11c6bf83f09.part'
p2338
sg9
S'0029b09e0bb15e51001ff11c6bf83f09'
p2339
sg11
L1048576L
sba(ipart
Part
p2340
(dp2341
g7
S'1683ff38af35df750fa7928447db9ec8/28a27bf3ca3e2b2e38157eb6bc609a0e.part'
p2342
sg9
S'28a27bf3ca3e2b2e38157eb6bc609a0e'
p2343
sg11
L1572864L
sba(ipart
Part
p2344
(dp2345
g7
S'1683ff38af35df750fa7928447db9ec8/fabffd74f296d0c1c3cfcbcb7d43bd66.part'
p2346
sg9
S'fabffd74f296d0c1c3cfcbcb7d43bd66'
p2347
sg11
L2097152L
sba(ipart
Part
p2348
(dp2349
g7
S'1683ff38af35df750fa7928447db9ec8/6a81a2f1b03c16207509ec5356dfa684.part'
p2350
sg9
S'6a81a2f1b03c16207509ec5356dfa684'
p2351
sg11
L2621440L
sba(ipart
Part
p2352
(dp2353
g7
S'1683ff38af35df750fa7928447db9ec8/61fa31b396272e477d96854786cfa61d.part'
p2354
sg9
S'61fa31b396272e477d96854786cfa61d'
p2355
sg11
L3145728L
sba(ipart
Part
p2356
(dp2357
g7
S'1683ff38af35df750fa7928447db9ec8/a364584db2236783e28b93115615a4e0.part'
p2358
sg9
S'a364584db2236783e28b93115615a4e0'
p2359
sg11
L3369489L
sba(ipart
Part
p2360
(dp2361
g7
S'1683ff38af35df750fa7928447db9ec8/455a0e1455d2cc455d2c632aed6c94fc.part'
p2362
sg9
S'455a0e1455d2cc455d2c632aed6c94fc'
p2363
sg11
L524288L
sba(ipart
Part
p2364
(dp2365
g7
S'1683ff38af35df750fa7928447db9ec8/0029b09e0bb15e51001ff11c6bf83f09.part'
p2366
sg9
S'0029b09e0bb15e51001ff11c6bf83f09'
p2367
sg11
L1048576L
sba(ipart
Part
p2368
(dp2369
g7
S'1683ff38af35df750fa7928447db9ec8/28a27bf3ca3e2b2e38157eb6bc609a0e.part'
p2370
sg9
S'28a27bf3ca3e2b2e38157eb6bc609a0e'
p2371
sg11
L1572864L
sba(ipart
Part
p2372
(dp2373
g7
S'1683ff38af35df750fa7928447db9ec8/fabffd74f296d0c1c3cfcbcb7d43bd66.part'
p2374
sg9
S'fabffd74f296d0c1c3cfcbcb7d43bd66'
p2375
sg11
L2097152L
sba(ipart
Part
p2376
(dp2377
g7
S'1683ff38af35df750fa7928447db9ec8/6a81a2f1b03c16207509ec5356dfa684.part'
p2378
sg9
S'6a81a2f1b03c16207509ec5356dfa684'
p2379
sg11
L2621440L
sba(ipart
Part
p2380
(dp2381
g7
S'1683ff38af35df750fa7928447db9ec8/61fa31b396272e477d96854786cfa61d.part'
p2382
sg9
S'61fa31b396272e477d96854786cfa61d'
p2383
sg11
L3145728L
sba(ipart
Part
p2384
(dp2385
g7
S'1683ff38af35df750fa7928447db9ec8/a364584db2236783e28b93115615a4e0.part'
p2386
sg9
S'a364584db2236783e28b93115615a4e0'
p2387
sg11
L3369489L
sba(ipart
Part
p2388
(dp2389
g7
S'1683ff38af35df750fa7928447db9ec8/455a0e1455d2cc455d2c632aed6c94fc.part'
p2390
sg9
S'455a0e1455d2cc455d2c632aed6c94fc'
p2391
sg11
L524288L
sba(ipart
Part
p2392
(dp2393
g7
S'1683ff38af35df750fa7928447db9ec8/0029b09e0bb15e51001ff11c6bf83f09.part'
p2394
sg9
S'0029b09e0bb15e51001ff11c6bf83f09'
p2395
sg11
L1048576L
sba(ipart
Part
p2396
(dp2397
g7
S'1683ff38af35df750fa7928447db9ec8/28a27bf3ca3e2b2e38157eb6bc609a0e.part'
p2398
sg9
S'28a27bf3ca3e2b2e38157eb6bc609a0e'
p2399
sg11
L1572864L
sba(ipart
Part
p2400
(dp2401
g7
S'1683ff38af35df750fa7928447db9ec8/fabffd74f296d0c1c3cfcbcb7d43bd66.part'
p2402
sg9
S'fabffd74f296d0c1c3cfcbcb7d43bd66'
p2403
sg11
L2097152L
sba(ipart
Part
p2404
(dp2405
g7
S'1683ff38af35df750fa7928447db9ec8/6a81a2f1b03c16207509ec5356dfa684.part'
p2406
sg9
S'6a81a2f1b03c16207509ec5356dfa684'
p2407
sg11
L2621440L
sba(ipart
Part
p2408
(dp2409
g7
S'1683ff38af35df750fa7928447db9ec8/61fa31b396272e477d96854786cfa61d.part'
p2410
sg9
S'61fa31b396272e477d96854786cfa61d'
p2411
sg11
L3145728L
sba(ipart
Part
p2412
(dp2413
g7
S'1683ff38af35df750fa7928447db9ec8/a364584db2236783e28b93115615a4e0.part'
p2414
sg9
S'a364584db2236783e28b93115615a4e0'
p2415
sg11
L3369489L
sba(ipart
Part
p2416
(dp2417
g7
S'1683ff38af35df750fa7928447db9ec8/455a0e1455d2cc455d2c632aed6c94fc.part'
p2418
sg9
S'455a0e1455d2cc455d2c632aed6c94fc'
p2419
sg11
L524288L
sba(ipart
Part
p2420
(dp2421
g7
S'1683ff38af35df750fa7928447db9ec8/0029b09e0bb15e51001ff11c6bf83f09.part'
p2422
sg9
S'0029b09e0bb15e51001ff11c6bf83f09'
p2423
sg11
L1048576L
sba(ipart
Part
p2424
(dp2425
g7
S'1683ff38af35df750fa7928447db9ec8/28a27bf3ca3e2b2e38157eb6bc609a0e.part'
p2426
sg9
S'28a27bf3ca3e2b2e38157eb6bc609a0e'
p2427
sg11
L1572864L
sba(ipart
Part
p2428
(dp2429
g7
S'1683ff38af35df750fa7928447db9ec8/fabffd74f296d0c1c3cfcbcb7d43bd66.part'
p2430
sg9
S'fabffd74f296d0c1c3cfcbcb7d43bd66'
p2431
sg11
L2097152L
sba(ipart
Part
p2432
(dp2433
g7
S'1683ff38af35df750fa7928447db9ec8/6a81a2f1b03c16207509ec5356dfa684.part'
p2434
sg9
S'6a81a2f1b03c16207509ec5356dfa684'
p2435
sg11
L2621440L
sba(ipart
Part
p2436
(dp2437
g7
S'1683ff38af35df750fa7928447db9ec8/61fa31b396272e477d96854786cfa61d.part'
p2438
sg9
S'61fa31b396272e477d96854786cfa61d'
p2439
sg11
L3145728L
sba(ipart
Part
p2440
(dp2441
g7
S'1683ff38af35df750fa7928447db9ec8/a364584db2236783e28b93115615a4e0.part'
p2442
sg9
S'a364584db2236783e28b93115615a4e0'
p2443
sg11
L3369489L
sba(ipart
Part
p2444
(dp2445
g7
S'1683ff38af35df750fa7928447db9ec8/455a0e1455d2cc455d2c632aed6c94fc.part'
p2446
sg9
S'455a0e1455d2cc455d2c632aed6c94fc'
p2447
sg11
L524288L
sba(ipart
Part
p2448
(dp2449
g7
S'1683ff38af35df750fa7928447db9ec8/0029b09e0bb15e51001ff11c6bf83f09.part'
p2450
sg9
S'0029b09e0bb15e51001ff11c6bf83f09'
p2451
sg11
L1048576L
sba(ipart
Part
p2452
(dp2453
g7
S'1683ff38af35df750fa7928447db9ec8/28a27bf3ca3e2b2e38157eb6bc609a0e.part'
p2454
sg9
S'28a27bf3ca3e2b2e38157eb6bc609a0e'
p2455
sg11
L1572864L
sba(ipart
Part
p2456
(dp2457
g7
S'1683ff38af35df750fa7928447db9ec8/fabffd74f296d0c1c3cfcbcb7d43bd66.part'
p2458
sg9
S'fabffd74f296d0c1c3cfcbcb7d43bd66'
p2459
sg11
L2097152L
sba(ipart
Part
p2460
(dp2461
g7
S'1683ff38af35df750fa7928447db9ec8/6a81a2f1b03c16207509ec5356dfa684.part'
p2462
sg9
S'6a81a2f1b03c16207509ec5356dfa684'
p2463
sg11
L2621440L
sba(ipart
Part
p2464
(dp2465
g7
S'1683ff38af35df750fa7928447db9ec8/61fa31b396272e477d96854786cfa61d.part'
p2466
sg9
S'61fa31b396272e477d96854786cfa61d'
p2467
sg11
L3145728L
sba(ipart
Part
p2468
(dp2469
g7
S'1683ff38af35df750fa7928447db9ec8/a364584db2236783e28b93115615a4e0.part'
p2470
sg9
S'a364584db2236783e28b93115615a4e0'
p2471
sg11
L3369489L
sba(ipart
Part
p2472
(dp2473
g7
S'1683ff38af35df750fa7928447db9ec8/455a0e1455d2cc455d2c632aed6c94fc.part'
p2474
sg9
S'455a0e1455d2cc455d2c632aed6c94fc'
p2475
sg11
L524288L
sba(ipart
Part
p2476
(dp2477
g7
S'1683ff38af35df750fa7928447db9ec8/0029b09e0bb15e51001ff11c6bf83f09.part'
p2478
sg9
S'0029b09e0bb15e51001ff11c6bf83f09'
p2479
sg11
L1048576L
sba(ipart
Part
p2480
(dp2481
g7
S'1683ff38af35df750fa7928447db9ec8/28a27bf3ca3e2b2e38157eb6bc609a0e.part'
p2482
sg9
S'28a27bf3ca3e2b2e38157eb6bc609a0e'
p2483
sg11
L1572864L
sba(ipart
Part
p2484
(dp2485
g7
S'1683ff38af35df750fa7928447db9ec8/fabffd74f296d0c1c3cfcbcb7d43bd66.part'
p2486
sg9
S'fabffd74f296d0c1c3cfcbcb7d43bd66'
p2487
sg11
L2097152L
sba(ipart
Part
p2488
(dp2489
g7
S'1683ff38af35df750fa7928447db9ec8/6a81a2f1b03c16207509ec5356dfa684.part'
p2490
sg9
S'6a81a2f1b03c16207509ec5356dfa684'
p2491
sg11
L2621440L
sba(ipart
Part
p2492
(dp2493
g7
S'1683ff38af35df750fa7928447db9ec8/61fa31b396272e477d96854786cfa61d.part'
p2494
sg9
S'61fa31b396272e477d96854786cfa61d'
p2495
sg11
L3145728L
sba(ipart
Part
p2496
(dp2497
g7
S'1683ff38af35df750fa7928447db9ec8/a364584db2236783e28b93115615a4e0.part'
p2498
sg9
S'a364584db2236783e28b93115615a4e0'
p2499
sg11
L3369489L
sba(ipart
Part
p2500
(dp2501
g7
S'1683ff38af35df750fa7928447db9ec8/455a0e1455d2cc455d2c632aed6c94fc.part'
p2502
sg9
S'455a0e1455d2cc455d2c632aed6c94fc'
p2503
sg11
L524288L
sba(ipart
Part
p2504
(dp2505
g7
S'1683ff38af35df750fa7928447db9ec8/0029b09e0bb15e51001ff11c6bf83f09.part'
p2506
sg9
S'0029b09e0bb15e51001ff11c6bf83f09'
p2507
sg11
L1048576L
sba(ipart
Part
p2508
(dp2509
g7
S'1683ff38af35df750fa7928447db9ec8/28a27bf3ca3e2b2e38157eb6bc609a0e.part'
p2510
sg9
S'28a27bf3ca3e2b2e38157eb6bc609a0e'
p2511
sg11
L1572864L
sba(ipart
Part
p2512
(dp2513
g7
S'1683ff38af35df750fa7928447db9ec8/fabffd74f296d0c1c3cfcbcb7d43bd66.part'
p2514
sg9
S'fabffd74f296d0c1c3cfcbcb7d43bd66'
p2515
sg11
L2097152L
sba(ipart
Part
p2516
(dp2517
g7
S'1683ff38af35df750fa7928447db9ec8/6a81a2f1b03c16207509ec5356dfa684.part'
p2518
sg9
S'6a81a2f1b03c16207509ec5356dfa684'
p2519
sg11
L2621440L
sba(ipart
Part
p2520
(dp2521
g7
S'1683ff38af35df750fa7928447db9ec8/61fa31b396272e477d96854786cfa61d.part'
p2522
sg9
S'61fa31b396272e477d96854786cfa61d'
p2523
sg11
L3145728L
sba(ipart
Part
p2524
(dp2525
g7
S'1683ff38af35df750fa7928447db9ec8/a364584db2236783e28b93115615a4e0.part'
p2526
sg9
S'a364584db2236783e28b93115615a4e0'
p2527
sg11
L3369489L
sba(ipart
Part
p2528
(dp2529
g7
S'1683ff38af35df750fa7928447db9ec8/455a0e1455d2cc455d2c632aed6c94fc.part'
p2530
sg9
S'455a0e1455d2cc455d2c632aed6c94fc'
p2531
sg11
L524288L
sba(ipart
Part
p2532
(dp2533
g7
S'1683ff38af35df750fa7928447db9ec8/0029b09e0bb15e51001ff11c6bf83f09.part'
p2534
sg9
S'0029b09e0bb15e51001ff11c6bf83f09'
p2535
sg11
L1048576L
sba(ipart
Part
p2536
(dp2537
g7
S'1683ff38af35df750fa7928447db9ec8/28a27bf3ca3e2b2e38157eb6bc609a0e.part'
p2538
sg9
S'28a27bf3ca3e2b2e38157eb6bc609a0e'
p2539
sg11
L1572864L
sba(ipart
Part
p2540
(dp2541
g7
S'1683ff38af35df750fa7928447db9ec8/fabffd74f296d0c1c3cfcbcb7d43bd66.part'
p2542
sg9
S'fabffd74f296d0c1c3cfcbcb7d43bd66'
p2543
sg11
L2097152L
sba(ipart
Part
p2544
(dp2545
g7
S'1683ff38af35df750fa7928447db9ec8/6a81a2f1b03c16207509ec5356dfa684.part'
p2546
sg9
S'6a81a2f1b03c16207509ec5356dfa684'
p2547
sg11
L2621440L
sba(ipart
Part
p2548
(dp2549
g7
S'1683ff38af35df750fa7928447db9ec8/61fa31b396272e477d96854786cfa61d.part'
p2550
sg9
S'61fa31b396272e477d96854786cfa61d'
p2551
sg11
L3145728L
sba(ipart
Part
p2552
(dp2553
g7
S'1683ff38af35df750fa7928447db9ec8/a364584db2236783e28b93115615a4e0.part'
p2554
sg9
S'a364584db2236783e28b93115615a4e0'
p2555
sg11
L3369489L
sba(ipart
Part
p2556
(dp2557
g7
S'1683ff38af35df750fa7928447db9ec8/455a0e1455d2cc455d2c632aed6c94fc.part'
p2558
sg9
S'455a0e1455d2cc455d2c632aed6c94fc'
p2559
sg11
L524288L
sba(ipart
Part
p2560
(dp2561
g7
S'1683ff38af35df750fa7928447db9ec8/0029b09e0bb15e51001ff11c6bf83f09.part'
p2562
sg9
S'0029b09e0bb15e51001ff11c6bf83f09'
p2563
sg11
L1048576L
sba(ipart
Part
p2564
(dp2565
g7
S'1683ff38af35df750fa7928447db9ec8/28a27bf3ca3e2b2e38157eb6bc609a0e.part'
p2566
sg9
S'28a27bf3ca3e2b2e38157eb6bc609a0e'
p2567
sg11
L1572864L
sba(ipart
Part
p2568
(dp2569
g7
S'1683ff38af35df750fa7928447db9ec8/fabffd74f296d0c1c3cfcbcb7d43bd66.part'
p2570
sg9
S'fabffd74f296d0c1c3cfcbcb7d43bd66'
p2571
sg11
L2097152L
sba(ipart
Part
p2572
(dp2573
g7
S'1683ff38af35df750fa7928447db9ec8/6a81a2f1b03c16207509ec5356dfa684.part'
p2574
sg9
S'6a81a2f1b03c16207509ec5356dfa684'
p2575
sg11
L2621440L
sba(ipart
Part
p2576
(dp2577
g7
S'1683ff38af35df750fa7928447db9ec8/61fa31b396272e477d96854786cfa61d.part'
p2578
sg9
S'61fa31b396272e477d96854786cfa61d'
p2579
sg11
L3145728L
sba(ipart
Part
p2580
(dp2581
g7
S'1683ff38af35df750fa7928447db9ec8/a364584db2236783e28b93115615a4e0.part'
p2582
sg9
S'a364584db2236783e28b93115615a4e0'
p2583
sg11
L3369489L
sba(ipart
Part
p2584
(dp2585
g7
S'1683ff38af35df750fa7928447db9ec8/455a0e1455d2cc455d2c632aed6c94fc.part'
p2586
sg9
S'455a0e1455d2cc455d2c632aed6c94fc'
p2587
sg11
L524288L
sba(ipart
Part
p2588
(dp2589
g7
S'1683ff38af35df750fa7928447db9ec8/0029b09e0bb15e51001ff11c6bf83f09.part'
p2590
sg9
S'0029b09e0bb15e51001ff11c6bf83f09'
p2591
sg11
L1048576L
sba(ipart
Part
p2592
(dp2593
g7
S'1683ff38af35df750fa7928447db9ec8/28a27bf3ca3e2b2e38157eb6bc609a0e.part'
p2594
sg9
S'28a27bf3ca3e2b2e38157eb6bc609a0e'
p2595
sg11
L1572864L
sba(ipart
Part
p2596
(dp2597
g7
S'1683ff38af35df750fa7928447db9ec8/fabffd74f296d0c1c3cfcbcb7d43bd66.part'
p2598
sg9
S'fabffd74f296d0c1c3cfcbcb7d43bd66'
p2599
sg11
L2097152L
sba(ipart
Part
p2600
(dp2601
g7
S'1683ff38af35df750fa7928447db9ec8/6a81a2f1b03c16207509ec5356dfa684.part'
p2602
sg9
S'6a81a2f1b03c16207509ec5356dfa684'
p2603
sg11
L2621440L
sba(ipart
Part
p2604
(dp2605
g7
S'1683ff38af35df750fa7928447db9ec8/61fa31b396272e477d96854786cfa61d.part'
p2606
sg9
S'61fa31b396272e477d96854786cfa61d'
p2607
sg11
L3145728L
sba(ipart
Part
p2608
(dp2609
g7
S'1683ff38af35df750fa7928447db9ec8/a364584db2236783e28b93115615a4e0.part'
p2610
sg9
S'a364584db2236783e28b93115615a4e0'
p2611
sg11
L3369489L
sba(ipart
Part
p2612
(dp2613
g7
S'1683ff38af35df750fa7928447db9ec8/455a0e1455d2cc455d2c632aed6c94fc.part'
p2614
sg9
S'455a0e1455d2cc455d2c632aed6c94fc'
p2615
sg11
L524288L
sba(ipart
Part
p2616
(dp2617
g7
S'1683ff38af35df750fa7928447db9ec8/0029b09e0bb15e51001ff11c6bf83f09.part'
p2618
sg9
S'0029b09e0bb15e51001ff11c6bf83f09'
p2619
sg11
L1048576L
sba(ipart
Part
p2620
(dp2621
g7
S'1683ff38af35df750fa7928447db9ec8/28a27bf3ca3e2b2e38157eb6bc609a0e.part'
p2622
sg9
S'28a27bf3ca3e2b2e38157eb6bc609a0e'
p2623
sg11
L1572864L
sba(ipart
Part
p2624
(dp2625
g7
S'1683ff38af35df750fa7928447db9ec8/fabffd74f296d0c1c3cfcbcb7d43bd66.part'
p2626
sg9
S'fabffd74f296d0c1c3cfcbcb7d43bd66'
p2627
sg11
L2097152L
sba(ipart
Part
p2628
(dp2629
g7
S'1683ff38af35df750fa7928447db9ec8/6a81a2f1b03c16207509ec5356dfa684.part'
p2630
sg9
S'6a81a2f1b03c16207509ec5356dfa684'
p2631
sg11
L2621440L
sba(ipart
Part
p2632
(dp2633
g7
S'1683ff38af35df750fa7928447db9ec8/61fa31b396272e477d96854786cfa61d.part'
p2634
sg9
S'61fa31b396272e477d96854786cfa61d'
p2635
sg11
L3145728L
sba(ipart
Part
p2636
(dp2637
g7
S'1683ff38af35df750fa7928447db9ec8/a364584db2236783e28b93115615a4e0.part'
p2638
sg9
S'a364584db2236783e28b93115615a4e0'
p2639
sg11
L3369489L
sba(ipart
Part
p2640
(dp2641
g7
S'1683ff38af35df750fa7928447db9ec8/455a0e1455d2cc455d2c632aed6c94fc.part'
p2642
sg9
S'455a0e1455d2cc455d2c632aed6c94fc'
p2643
sg11
L524288L
sba(ipart
Part
p2644
(dp2645
g7
S'1683ff38af35df750fa7928447db9ec8/0029b09e0bb15e51001ff11c6bf83f09.part'
p2646
sg9
S'0029b09e0bb15e51001ff11c6bf83f09'
p2647
sg11
L1048576L
sba(ipart
Part
p2648
(dp2649
g7
S'1683ff38af35df750fa7928447db9ec8/28a27bf3ca3e2b2e38157eb6bc609a0e.part'
p2650
sg9
S'28a27bf3ca3e2b2e38157eb6bc609a0e'
p2651
sg11
L1572864L
sba(ipart
Part
p2652
(dp2653
g7
S'1683ff38af35df750fa7928447db9ec8/fabffd74f296d0c1c3cfcbcb7d43bd66.part'
p2654
sg9
S'fabffd74f296d0c1c3cfcbcb7d43bd66'
p2655
sg11
L2097152L
sba(ipart
Part
p2656
(dp2657
g7
S'1683ff38af35df750fa7928447db9ec8/6a81a2f1b03c16207509ec5356dfa684.part'
p2658
sg9
S'6a81a2f1b03c16207509ec5356dfa684'
p2659
sg11
L2621440L
sba(ipart
Part
p2660
(dp2661
g7
S'1683ff38af35df750fa7928447db9ec8/61fa31b396272e477d96854786cfa61d.part'
p2662
sg9
S'61fa31b396272e477d96854786cfa61d'
p2663
sg11
L3145728L
sba(ipart
Part
p2664
(dp2665
g7
S'1683ff38af35df750fa7928447db9ec8/a364584db2236783e28b93115615a4e0.part'
p2666
sg9
S'a364584db2236783e28b93115615a4e0'
p2667
sg11
L3369489L
sba(ipart
Part
p2668
(dp2669
g7
S'1683ff38af35df750fa7928447db9ec8/455a0e1455d2cc455d2c632aed6c94fc.part'
p2670
sg9
S'455a0e1455d2cc455d2c632aed6c94fc'
p2671
sg11
L524288L
sba(ipart
Part
p2672
(dp2673
g7
S'1683ff38af35df750fa7928447db9ec8/0029b09e0bb15e51001ff11c6bf83f09.part'
p2674
sg9
S'0029b09e0bb15e51001ff11c6bf83f09'
p2675
sg11
L1048576L
sba(ipart
Part
p2676
(dp2677
g7
S'1683ff38af35df750fa7928447db9ec8/28a27bf3ca3e2b2e38157eb6bc609a0e.part'
p2678
sg9
S'28a27bf3ca3e2b2e38157eb6bc609a0e'
p2679
sg11
L1572864L
sba(ipart
Part
p2680
(dp2681
g7
S'1683ff38af35df750fa7928447db9ec8/fabffd74f296d0c1c3cfcbcb7d43bd66.part'
p2682
sg9
S'fabffd74f296d0c1c3cfcbcb7d43bd66'
p2683
sg11
L2097152L
sba(ipart
Part
p2684
(dp2685
g7
S'1683ff38af35df750fa7928447db9ec8/6a81a2f1b03c16207509ec5356dfa684.part'
p2686
sg9
S'6a81a2f1b03c16207509ec5356dfa684'
p2687
sg11
L2621440L
sba(ipart
Part
p2688
(dp2689
g7
S'1683ff38af35df750fa7928447db9ec8/61fa31b396272e477d96854786cfa61d.part'
p2690
sg9
S'61fa31b396272e477d96854786cfa61d'
p2691
sg11
L3145728L
sba(ipart
Part
p2692
(dp2693
g7
S'1683ff38af35df750fa7928447db9ec8/a364584db2236783e28b93115615a4e0.part'
p2694
sg9
S'a364584db2236783e28b93115615a4e0'
p2695
sg11
L3369489L
sba(ipart
Part
p2696
(dp2697
g7
S'1683ff38af35df750fa7928447db9ec8/455a0e1455d2cc455d2c632aed6c94fc.part'
p2698
sg9
S'455a0e1455d2cc455d2c632aed6c94fc'
p2699
sg11
L524288L
sba(ipart
Part
p2700
(dp2701
g7
S'1683ff38af35df750fa7928447db9ec8/0029b09e0bb15e51001ff11c6bf83f09.part'
p2702
sg9
S'0029b09e0bb15e51001ff11c6bf83f09'
p2703
sg11
L1048576L
sba(ipart
Part
p2704
(dp2705
g7
S'1683ff38af35df750fa7928447db9ec8/28a27bf3ca3e2b2e38157eb6bc609a0e.part'
p2706
sg9
S'28a27bf3ca3e2b2e38157eb6bc609a0e'
p2707
sg11
L1572864L
sba(ipart
Part
p2708
(dp2709
g7
S'1683ff38af35df750fa7928447db9ec8/fabffd74f296d0c1c3cfcbcb7d43bd66.part'
p2710
sg9
S'fabffd74f296d0c1c3cfcbcb7d43bd66'
p2711
sg11
L2097152L
sba(ipart
Part
p2712
(dp2713
g7
S'1683ff38af35df750fa7928447db9ec8/6a81a2f1b03c16207509ec5356dfa684.part'
p2714
sg9
S'6a81a2f1b03c16207509ec5356dfa684'
p2715
sg11
L2621440L
sba(ipart
Part
p2716
(dp2717
g7
S'1683ff38af35df750fa7928447db9ec8/61fa31b396272e477d96854786cfa61d.part'
p2718
sg9
S'61fa31b396272e477d96854786cfa61d'
p2719
sg11
L3145728L
sba(ipart
Part
p2720
(dp2721
g7
S'1683ff38af35df750fa7928447db9ec8/a364584db2236783e28b93115615a4e0.part'
p2722
sg9
S'a364584db2236783e28b93115615a4e0'
p2723
sg11
L3369489L
sba(ipart
Part
p2724
(dp2725
g7
S'1683ff38af35df750fa7928447db9ec8/455a0e1455d2cc455d2c632aed6c94fc.part'
p2726
sg9
S'455a0e1455d2cc455d2c632aed6c94fc'
p2727
sg11
L524288L
sba(ipart
Part
p2728
(dp2729
g7
S'1683ff38af35df750fa7928447db9ec8/0029b09e0bb15e51001ff11c6bf83f09.part'
p2730
sg9
S'0029b09e0bb15e51001ff11c6bf83f09'
p2731
sg11
L1048576L
sba(ipart
Part
p2732
(dp2733
g7
S'1683ff38af35df750fa7928447db9ec8/28a27bf3ca3e2b2e38157eb6bc609a0e.part'
p2734
sg9
S'28a27bf3ca3e2b2e38157eb6bc609a0e'
p2735
sg11
L1572864L
sba(ipart
Part
p2736
(dp2737
g7
S'1683ff38af35df750fa7928447db9ec8/fabffd74f296d0c1c3cfcbcb7d43bd66.part'
p2738
sg9
S'fabffd74f296d0c1c3cfcbcb7d43bd66'
p2739
sg11
L2097152L
sba(ipart
Part
p2740
(dp2741
g7
S'1683ff38af35df750fa7928447db9ec8/6a81a2f1b03c16207509ec5356dfa684.part'
p2742
sg9
S'6a81a2f1b03c16207509ec5356dfa684'
p2743
sg11
L2621440L
sba(ipart
Part
p2744
(dp2745
g7
S'1683ff38af35df750fa7928447db9ec8/61fa31b396272e477d96854786cfa61d.part'
p2746
sg9
S'61fa31b396272e477d96854786cfa61d'
p2747
sg11
L3145728L
sba(ipart
Part
p2748
(dp2749
g7
S'1683ff38af35df750fa7928447db9ec8/a364584db2236783e28b93115615a4e0.part'
p2750
sg9
S'a364584db2236783e28b93115615a4e0'
p2751
sg11
L3369489L
sba(ipart
Part
p2752
(dp2753
g7
S'1683ff38af35df750fa7928447db9ec8/455a0e1455d2cc455d2c632aed6c94fc.part'
p2754
sg9
S'455a0e1455d2cc455d2c632aed6c94fc'
p2755
sg11
L524288L
sba(ipart
Part
p2756
(dp2757
g7
S'1683ff38af35df750fa7928447db9ec8/0029b09e0bb15e51001ff11c6bf83f09.part'
p2758
sg9
S'0029b09e0bb15e51001ff11c6bf83f09'
p2759
sg11
L1048576L
sba(ipart
Part
p2760
(dp2761
g7
S'1683ff38af35df750fa7928447db9ec8/28a27bf3ca3e2b2e38157eb6bc609a0e.part'
p2762
sg9
S'28a27bf3ca3e2b2e38157eb6bc609a0e'
p2763
sg11
L1572864L
sba(ipart
Part
p2764
(dp2765
g7
S'1683ff38af35df750fa7928447db9ec8/fabffd74f296d0c1c3cfcbcb7d43bd66.part'
p2766
sg9
S'fabffd74f296d0c1c3cfcbcb7d43bd66'
p2767
sg11
L2097152L
sba(ipart
Part
p2768
(dp2769
g7
S'1683ff38af35df750fa7928447db9ec8/6a81a2f1b03c16207509ec5356dfa684.part'
p2770
sg9
S'6a81a2f1b03c16207509ec5356dfa684'
p2771
sg11
L2621440L
sba(ipart
Part
p2772
(dp2773
g7
S'1683ff38af35df750fa7928447db9ec8/61fa31b396272e477d96854786cfa61d.part'
p2774
sg9
S'61fa31b396272e477d96854786cfa61d'
p2775
sg11
L3145728L
sba(ipart
Part
p2776
(dp2777
g7
S'1683ff38af35df750fa7928447db9ec8/a364584db2236783e28b93115615a4e0.part'
p2778
sg9
S'a364584db2236783e28b93115615a4e0'
p2779
sg11
L3369489L
sba(ipart
Part
p2780
(dp2781
g7
S'1683ff38af35df750fa7928447db9ec8/455a0e1455d2cc455d2c632aed6c94fc.part'
p2782
sg9
S'455a0e1455d2cc455d2c632aed6c94fc'
p2783
sg11
L524288L
sba(ipart
Part
p2784
(dp2785
g7
S'1683ff38af35df750fa7928447db9ec8/0029b09e0bb15e51001ff11c6bf83f09.part'
p2786
sg9
S'0029b09e0bb15e51001ff11c6bf83f09'
p2787
sg11
L1048576L
sba(ipart
Part
p2788
(dp2789
g7
S'1683ff38af35df750fa7928447db9ec8/28a27bf3ca3e2b2e38157eb6bc609a0e.part'
p2790
sg9
S'28a27bf3ca3e2b2e38157eb6bc609a0e'
p2791
sg11
L1572864L
sba(ipart
Part
p2792
(dp2793
g7
S'1683ff38af35df750fa7928447db9ec8/fabffd74f296d0c1c3cfcbcb7d43bd66.part'
p2794
sg9
S'fabffd74f296d0c1c3cfcbcb7d43bd66'
p2795
sg11
L2097152L
sba(ipart
Part
p2796
(dp2797
g7
S'1683ff38af35df750fa7928447db9ec8/6a81a2f1b03c16207509ec5356dfa684.part'
p2798
sg9
S'6a81a2f1b03c16207509ec5356dfa684'
p2799
sg11
L2621440L
sba(ipart
Part
p2800
(dp2801
g7
S'1683ff38af35df750fa7928447db9ec8/61fa31b396272e477d96854786cfa61d.part'
p2802
sg9
S'61fa31b396272e477d96854786cfa61d'
p2803
sg11
L3145728L
sba(ipart
Part
p2804
(dp2805
g7
S'1683ff38af35df750fa7928447db9ec8/a364584db2236783e28b93115615a4e0.part'
p2806
sg9
S'a364584db2236783e28b93115615a4e0'
p2807
sg11
L3369489L
sba(ipart
Part
p2808
(dp2809
g7
S'1683ff38af35df750fa7928447db9ec8/455a0e1455d2cc455d2c632aed6c94fc.part'
p2810
sg9
S'455a0e1455d2cc455d2c632aed6c94fc'
p2811
sg11
L524288L
sba(ipart
Part
p2812
(dp2813
g7
S'1683ff38af35df750fa7928447db9ec8/0029b09e0bb15e51001ff11c6bf83f09.part'
p2814
sg9
S'0029b09e0bb15e51001ff11c6bf83f09'
p2815
sg11
L1048576L
sba(ipart
Part
p2816
(dp2817
g7
S'1683ff38af35df750fa7928447db9ec8/28a27bf3ca3e2b2e38157eb6bc609a0e.part'
p2818
sg9
S'28a27bf3ca3e2b2e38157eb6bc609a0e'
p2819
sg11
L1572864L
sba(ipart
Part
p2820
(dp2821
g7
S'1683ff38af35df750fa7928447db9ec8/fabffd74f296d0c1c3cfcbcb7d43bd66.part'
p2822
sg9
S'fabffd74f296d0c1c3cfcbcb7d43bd66'
p2823
sg11
L2097152L
sba(ipart
Part
p2824
(dp2825
g7
S'1683ff38af35df750fa7928447db9ec8/6a81a2f1b03c16207509ec5356dfa684.part'
p2826
sg9
S'6a81a2f1b03c16207509ec5356dfa684'
p2827
sg11
L2621440L
sba(ipart
Part
p2828
(dp2829
g7
S'1683ff38af35df750fa7928447db9ec8/61fa31b396272e477d96854786cfa61d.part'
p2830
sg9
S'61fa31b396272e477d96854786cfa61d'
p2831
sg11
L3145728L
sba(ipart
Part
p2832
(dp2833
g7
S'1683ff38af35df750fa7928447db9ec8/a364584db2236783e28b93115615a4e0.part'
p2834
sg9
S'a364584db2236783e28b93115615a4e0'
p2835
sg11
L3369489L
sba(ipart
Part
p2836
(dp2837
g7
S'1683ff38af35df750fa7928447db9ec8/455a0e1455d2cc455d2c632aed6c94fc.part'
p2838
sg9
S'455a0e1455d2cc455d2c632aed6c94fc'
p2839
sg11
L524288L
sba(ipart
Part
p2840
(dp2841
g7
S'1683ff38af35df750fa7928447db9ec8/0029b09e0bb15e51001ff11c6bf83f09.part'
p2842
sg9
S'0029b09e0bb15e51001ff11c6bf83f09'
p2843
sg11
L1048576L
sba(ipart
Part
p2844
(dp2845
g7
S'1683ff38af35df750fa7928447db9ec8/28a27bf3ca3e2b2e38157eb6bc609a0e.part'
p2846
sg9
S'28a27bf3ca3e2b2e38157eb6bc609a0e'
p2847
sg11
L1572864L
sba(ipart
Part
p2848
(dp2849
g7
S'1683ff38af35df750fa7928447db9ec8/fabffd74f296d0c1c3cfcbcb7d43bd66.part'
p2850
sg9
S'fabffd74f296d0c1c3cfcbcb7d43bd66'
p2851
sg11
L2097152L
sba(ipart
Part
p2852
(dp2853
g7
S'1683ff38af35df750fa7928447db9ec8/6a81a2f1b03c16207509ec5356dfa684.part'
p2854
sg9
S'6a81a2f1b03c16207509ec5356dfa684'
p2855
sg11
L2621440L
sba(ipart
Part
p2856
(dp2857
g7
S'1683ff38af35df750fa7928447db9ec8/61fa31b396272e477d96854786cfa61d.part'
p2858
sg9
S'61fa31b396272e477d96854786cfa61d'
p2859
sg11
L3145728L
sba(ipart
Part
p2860
(dp2861
g7
S'1683ff38af35df750fa7928447db9ec8/a364584db2236783e28b93115615a4e0.part'
p2862
sg9
S'a364584db2236783e28b93115615a4e0'
p2863
sg11
L3369489L
sba(ipart
Part
p2864
(dp2865
g7
S'1683ff38af35df750fa7928447db9ec8/455a0e1455d2cc455d2c632aed6c94fc.part'
p2866
sg9
S'455a0e1455d2cc455d2c632aed6c94fc'
p2867
sg11
L524288L
sba(ipart
Part
p2868
(dp2869
g7
S'1683ff38af35df750fa7928447db9ec8/0029b09e0bb15e51001ff11c6bf83f09.part'
p2870
sg9
S'0029b09e0bb15e51001ff11c6bf83f09'
p2871
sg11
L1048576L
sba(ipart
Part
p2872
(dp2873
g7
S'1683ff38af35df750fa7928447db9ec8/28a27bf3ca3e2b2e38157eb6bc609a0e.part'
p2874
sg9
S'28a27bf3ca3e2b2e38157eb6bc609a0e'
p2875
sg11
L1572864L
sba(ipart
Part
p2876
(dp2877
g7
S'1683ff38af35df750fa7928447db9ec8/fabffd74f296d0c1c3cfcbcb7d43bd66.part'
p2878
sg9
S'fabffd74f296d0c1c3cfcbcb7d43bd66'
p2879
sg11
L2097152L
sba(ipart
Part
p2880
(dp2881
g7
S'1683ff38af35df750fa7928447db9ec8/6a81a2f1b03c16207509ec5356dfa684.part'
p2882
sg9
S'6a81a2f1b03c16207509ec5356dfa684'
p2883
sg11
L2621440L
sba(ipart
Part
p2884
(dp2885
g7
S'1683ff38af35df750fa7928447db9ec8/61fa31b396272e477d96854786cfa61d.part'
p2886
sg9
S'61fa31b396272e477d96854786cfa61d'
p2887
sg11
L3145728L
sba(ipart
Part
p2888
(dp2889
g7
S'1683ff38af35df750fa7928447db9ec8/a364584db2236783e28b93115615a4e0.part'
p2890
sg9
S'a364584db2236783e28b93115615a4e0'
p2891
sg11
L3369489L
sba(ipart
Part
p2892
(dp2893
g7
S'1683ff38af35df750fa7928447db9ec8/455a0e1455d2cc455d2c632aed6c94fc.part'
p2894
sg9
S'455a0e1455d2cc455d2c632aed6c94fc'
p2895
sg11
L524288L
sba(ipart
Part
p2896
(dp2897
g7
S'1683ff38af35df750fa7928447db9ec8/0029b09e0bb15e51001ff11c6bf83f09.part'
p2898
sg9
S'0029b09e0bb15e51001ff11c6bf83f09'
p2899
sg11
L1048576L
sba(ipart
Part
p2900
(dp2901
g7
S'1683ff38af35df750fa7928447db9ec8/28a27bf3ca3e2b2e38157eb6bc609a0e.part'
p2902
sg9
S'28a27bf3ca3e2b2e38157eb6bc609a0e'
p2903
sg11
L1572864L
sba(ipart
Part
p2904
(dp2905
g7
S'1683ff38af35df750fa7928447db9ec8/fabffd74f296d0c1c3cfcbcb7d43bd66.part'
p2906
sg9
S'fabffd74f296d0c1c3cfcbcb7d43bd66'
p2907
sg11
L2097152L
sba(ipart
Part
p2908
(dp2909
g7
S'1683ff38af35df750fa7928447db9ec8/6a81a2f1b03c16207509ec5356dfa684.part'
p2910
sg9
S'6a81a2f1b03c16207509ec5356dfa684'
p2911
sg11
L2621440L
sba(ipart
Part
p2912
(dp2913
g7
S'1683ff38af35df750fa7928447db9ec8/61fa31b396272e477d96854786cfa61d.part'
p2914
sg9
S'61fa31b396272e477d96854786cfa61d'
p2915
sg11
L3145728L
sba(ipart
Part
p2916
(dp2917
g7
S'1683ff38af35df750fa7928447db9ec8/a364584db2236783e28b93115615a4e0.part'
p2918
sg9
S'a364584db2236783e28b93115615a4e0'
p2919
sg11
L3369489L
sba(ipart
Part
p2920
(dp2921
g7
S'1683ff38af35df750fa7928447db9ec8/455a0e1455d2cc455d2c632aed6c94fc.part'
p2922
sg9
S'455a0e1455d2cc455d2c632aed6c94fc'
p2923
sg11
L524288L
sba(ipart
Part
p2924
(dp2925
g7
S'1683ff38af35df750fa7928447db9ec8/0029b09e0bb15e51001ff11c6bf83f09.part'
p2926
sg9
S'0029b09e0bb15e51001ff11c6bf83f09'
p2927
sg11
L1048576L
sba(ipart
Part
p2928
(dp2929
g7
S'1683ff38af35df750fa7928447db9ec8/28a27bf3ca3e2b2e38157eb6bc609a0e.part'
p2930
sg9
S'28a27bf3ca3e2b2e38157eb6bc609a0e'
p2931
sg11
L1572864L
sba(ipart
Part
p2932
(dp2933
g7
S'1683ff38af35df750fa7928447db9ec8/fabffd74f296d0c1c3cfcbcb7d43bd66.part'
p2934
sg9
S'fabffd74f296d0c1c3cfcbcb7d43bd66'
p2935
sg11
L2097152L
sba(ipart
Part
p2936
(dp2937
g7
S'1683ff38af35df750fa7928447db9ec8/6a81a2f1b03c16207509ec5356dfa684.part'
p2938
sg9
S'6a81a2f1b03c16207509ec5356dfa684'
p2939
sg11
L2621440L
sba(ipart
Part
p2940
(dp2941
g7
S'1683ff38af35df750fa7928447db9ec8/61fa31b396272e477d96854786cfa61d.part'
p2942
sg9
S'61fa31b396272e477d96854786cfa61d'
p2943
sg11
L3145728L
sba(ipart
Part
p2944
(dp2945
g7
S'1683ff38af35df750fa7928447db9ec8/a364584db2236783e28b93115615a4e0.part'
p2946
sg9
S'a364584db2236783e28b93115615a4e0'
p2947
sg11
L3369489L
sba(ipart
Part
p2948
(dp2949
g7
S'1683ff38af35df750fa7928447db9ec8/455a0e1455d2cc455d2c632aed6c94fc.part'
p2950
sg9
S'455a0e1455d2cc455d2c632aed6c94fc'
p2951
sg11
L524288L
sba(ipart
Part
p2952
(dp2953
g7
S'1683ff38af35df750fa7928447db9ec8/0029b09e0bb15e51001ff11c6bf83f09.part'
p2954
sg9
S'0029b09e0bb15e51001ff11c6bf83f09'
p2955
sg11
L1048576L
sba(ipart
Part
p2956
(dp2957
g7
S'1683ff38af35df750fa7928447db9ec8/28a27bf3ca3e2b2e38157eb6bc609a0e.part'
p2958
sg9
S'28a27bf3ca3e2b2e38157eb6bc609a0e'
p2959
sg11
L1572864L
sba(ipart
Part
p2960
(dp2961
g7
S'1683ff38af35df750fa7928447db9ec8/fabffd74f296d0c1c3cfcbcb7d43bd66.part'
p2962
sg9
S'fabffd74f296d0c1c3cfcbcb7d43bd66'
p2963
sg11
L2097152L
sba(ipart
Part
p2964
(dp2965
g7
S'1683ff38af35df750fa7928447db9ec8/6a81a2f1b03c16207509ec5356dfa684.part'
p2966
sg9
S'6a81a2f1b03c16207509ec5356dfa684'
p2967
sg11
L2621440L
sba(ipart
Part
p2968
(dp2969
g7
S'1683ff38af35df750fa7928447db9ec8/61fa31b396272e477d96854786cfa61d.part'
p2970
sg9
S'61fa31b396272e477d96854786cfa61d'
p2971
sg11
L3145728L
sba(ipart
Part
p2972
(dp2973
g7
S'1683ff38af35df750fa7928447db9ec8/a364584db2236783e28b93115615a4e0.part'
p2974
sg9
S'a364584db2236783e28b93115615a4e0'
p2975
sg11
L3369489L
sba(ipart
Part
p2976
(dp2977
g7
S'1683ff38af35df750fa7928447db9ec8/455a0e1455d2cc455d2c632aed6c94fc.part'
p2978
sg9
S'455a0e1455d2cc455d2c632aed6c94fc'
p2979
sg11
L524288L
sba(ipart
Part
p2980
(dp2981
g7
S'1683ff38af35df750fa7928447db9ec8/0029b09e0bb15e51001ff11c6bf83f09.part'
p2982
sg9
S'0029b09e0bb15e51001ff11c6bf83f09'
p2983
sg11
L1048576L
sba(ipart
Part
p2984
(dp2985
g7
S'1683ff38af35df750fa7928447db9ec8/28a27bf3ca3e2b2e38157eb6bc609a0e.part'
p2986
sg9
S'28a27bf3ca3e2b2e38157eb6bc609a0e'
p2987
sg11
L1572864L
sba(ipart
Part
p2988
(dp2989
g7
S'1683ff38af35df750fa7928447db9ec8/fabffd74f296d0c1c3cfcbcb7d43bd66.part'
p2990
sg9
S'fabffd74f296d0c1c3cfcbcb7d43bd66'
p2991
sg11
L2097152L
sba(ipart
Part
p2992
(dp2993
g7
S'1683ff38af35df750fa7928447db9ec8/6a81a2f1b03c16207509ec5356dfa684.part'
p2994
sg9
S'6a81a2f1b03c16207509ec5356dfa684'
p2995
sg11
L2621440L
sba(ipart
Part
p2996
(dp2997
g7
S'1683ff38af35df750fa7928447db9ec8/61fa31b396272e477d96854786cfa61d.part'
p2998
sg9
S'61fa31b396272e477d96854786cfa61d'
p2999
sg11
L3145728L
sba(ipart
Part
p3000
(dp3001
g7
S'1683ff38af35df750fa7928447db9ec8/a364584db2236783e28b93115615a4e0.part'
p3002
sg9
S'a364584db2236783e28b93115615a4e0'
p3003
sg11
L3369489L
sba(ipart
Part
p3004
(dp3005
g7
S'1683ff38af35df750fa7928447db9ec8/455a0e1455d2cc455d2c632aed6c94fc.part'
p3006
sg9
S'455a0e1455d2cc455d2c632aed6c94fc'
p3007
sg11
L524288L
sba(ipart
Part
p3008
(dp3009
g7
S'1683ff38af35df750fa7928447db9ec8/0029b09e0bb15e51001ff11c6bf83f09.part'
p3010
sg9
S'0029b09e0bb15e51001ff11c6bf83f09'
p3011
sg11
L1048576L
sba(ipart
Part
p3012
(dp3013
g7
S'1683ff38af35df750fa7928447db9ec8/28a27bf3ca3e2b2e38157eb6bc609a0e.part'
p3014
sg9
S'28a27bf3ca3e2b2e38157eb6bc609a0e'
p3015
sg11
L1572864L
sba(ipart
Part
p3016
(dp3017
g7
S'1683ff38af35df750fa7928447db9ec8/fabffd74f296d0c1c3cfcbcb7d43bd66.part'
p3018
sg9
S'fabffd74f296d0c1c3cfcbcb7d43bd66'
p3019
sg11
L2097152L
sba(ipart
Part
p3020
(dp3021
g7
S'1683ff38af35df750fa7928447db9ec8/6a81a2f1b03c16207509ec5356dfa684.part'
p3022
sg9
S'6a81a2f1b03c16207509ec5356dfa684'
p3023
sg11
L2621440L
sba(ipart
Part
p3024
(dp3025
g7
S'1683ff38af35df750fa7928447db9ec8/61fa31b396272e477d96854786cfa61d.part'
p3026
sg9
S'61fa31b396272e477d96854786cfa61d'
p3027
sg11
L3145728L
sba(ipart
Part
p3028
(dp3029
g7
S'1683ff38af35df750fa7928447db9ec8/a364584db2236783e28b93115615a4e0.part'
p3030
sg9
S'a364584db2236783e28b93115615a4e0'
p3031
sg11
L3369489L
sba(ipart
Part
p3032
(dp3033
g7
S'1683ff38af35df750fa7928447db9ec8/455a0e1455d2cc455d2c632aed6c94fc.part'
p3034
sg9
S'455a0e1455d2cc455d2c632aed6c94fc'
p3035
sg11
L524288L
sba(ipart
Part
p3036
(dp3037
g7
S'1683ff38af35df750fa7928447db9ec8/0029b09e0bb15e51001ff11c6bf83f09.part'
p3038
sg9
S'0029b09e0bb15e51001ff11c6bf83f09'
p3039
sg11
L1048576L
sba(ipart
Part
p3040
(dp3041
g7
S'1683ff38af35df750fa7928447db9ec8/28a27bf3ca3e2b2e38157eb6bc609a0e.part'
p3042
sg9
S'28a27bf3ca3e2b2e38157eb6bc609a0e'
p3043
sg11
L1572864L
sba(ipart
Part
p3044
(dp3045
g7
S'1683ff38af35df750fa7928447db9ec8/fabffd74f296d0c1c3cfcbcb7d43bd66.part'
p3046
sg9
S'fabffd74f296d0c1c3cfcbcb7d43bd66'
p3047
sg11
L2097152L
sba(ipart
Part
p3048
(dp3049
g7
S'1683ff38af35df750fa7928447db9ec8/6a81a2f1b03c16207509ec5356dfa684.part'
p3050
sg9
S'6a81a2f1b03c16207509ec5356dfa684'
p3051
sg11
L2621440L
sba(ipart
Part
p3052
(dp3053
g7
S'1683ff38af35df750fa7928447db9ec8/61fa31b396272e477d96854786cfa61d.part'
p3054
sg9
S'61fa31b396272e477d96854786cfa61d'
p3055
sg11
L3145728L
sba(ipart
Part
p3056
(dp3057
g7
S'1683ff38af35df750fa7928447db9ec8/a364584db2236783e28b93115615a4e0.part'
p3058
sg9
S'a364584db2236783e28b93115615a4e0'
p3059
sg11
L3369489L
sba(ipart
Part
p3060
(dp3061
g7
S'1683ff38af35df750fa7928447db9ec8/455a0e1455d2cc455d2c632aed6c94fc.part'
p3062
sg9
S'455a0e1455d2cc455d2c632aed6c94fc'
p3063
sg11
L524288L
sba(ipart
Part
p3064
(dp3065
g7
S'1683ff38af35df750fa7928447db9ec8/0029b09e0bb15e51001ff11c6bf83f09.part'
p3066
sg9
S'0029b09e0bb15e51001ff11c6bf83f09'
p3067
sg11
L1048576L
sba(ipart
Part
p3068
(dp3069
g7
S'1683ff38af35df750fa7928447db9ec8/28a27bf3ca3e2b2e38157eb6bc609a0e.part'
p3070
sg9
S'28a27bf3ca3e2b2e38157eb6bc609a0e'
p3071
sg11
L1572864L
sba(ipart
Part
p3072
(dp3073
g7
S'1683ff38af35df750fa7928447db9ec8/fabffd74f296d0c1c3cfcbcb7d43bd66.part'
p3074
sg9
S'fabffd74f296d0c1c3cfcbcb7d43bd66'
p3075
sg11
L2097152L
sba(ipart
Part
p3076
(dp3077
g7
S'1683ff38af35df750fa7928447db9ec8/6a81a2f1b03c16207509ec5356dfa684.part'
p3078
sg9
S'6a81a2f1b03c16207509ec5356dfa684'
p3079
sg11
L2621440L
sba(ipart
Part
p3080
(dp3081
g7
S'1683ff38af35df750fa7928447db9ec8/61fa31b396272e477d96854786cfa61d.part'
p3082
sg9
S'61fa31b396272e477d96854786cfa61d'
p3083
sg11
L3145728L
sba(ipart
Part
p3084
(dp3085
g7
S'1683ff38af35df750fa7928447db9ec8/a364584db2236783e28b93115615a4e0.part'
p3086
sg9
S'a364584db2236783e28b93115615a4e0'
p3087
sg11
L3369489L
sbasS'hash'
p3088
S'1683ff38af35df750fa7928447db9ec8'
p3089
s.