(dp0
S'path'
p1
S'Raimundos  mulher de fases.mp3'
p2
sS'parts'
p3
(lp4
(ipart
Part
p5
(dp6
S'_Part__path'
p7
S'1683ff38af35df750fa7928447db9ec8/455a0e1455d2cc455d2c632aed6c94fc.part'
p8
sS'_Part__hash'
p9
S'455a0e1455d2cc455d2c632aed6c94fc'
p10
sS'_Part__index'
p11
L524288L
sba(ipart
Part
p12
(dp13
g7
S'1683ff38af35df750fa7928447db9ec8/0029b09e0bb15e51001ff11c6bf83f09.part'
p14
sg9
S'0029b09e0bb15e51001ff11c6bf83f09'
p15
sg11
L1048576L
sba(ipart
Part
p16
(dp17
g7
S'1683ff38af35df750fa7928447db9ec8/28a27bf3ca3e2b2e38157eb6bc609a0e.part'
p18
sg9
S'28a27bf3ca3e2b2e38157eb6bc609a0e'
p19
sg11
L1572864L
sba(ipart
Part
p20
(dp21
g7
S'1683ff38af35df750fa7928447db9ec8/fabffd74f296d0c1c3cfcbcb7d43bd66.part'
p22
sg9
S'fabffd74f296d0c1c3cfcbcb7d43bd66'
p23
sg11
L2097152L
sba(ipart
Part
p24
(dp25
g7
S'1683ff38af35df750fa7928447db9ec8/6a81a2f1b03c16207509ec5356dfa684.part'
p26
sg9
S'6a81a2f1b03c16207509ec5356dfa684'
p27
sg11
L2621440L
sba(ipart
Part
p28
(dp29
g7
S'1683ff38af35df750fa7928447db9ec8/61fa31b396272e477d96854786cfa61d.part'
p30
sg9
S'61fa31b396272e477d96854786cfa61d'
p31
sg11
L3145728L
sba(ipart
Part
p32
(dp33
g7
S'1683ff38af35df750fa7928447db9ec8/a364584db2236783e28b93115615a4e0.part'
p34
sg9
S'a364584db2236783e28b93115615a4e0'
p35
sg11
L3369489L
sba(ipart
Part
p36
(dp37
g7
S'1683ff38af35df750fa7928447db9ec8/455a0e1455d2cc455d2c632aed6c94fc.part'
p38
sg9
S'455a0e1455d2cc455d2c632aed6c94fc'
p39
sg11
L524288L
sba(ipart
Part
p40
(dp41
g7
S'1683ff38af35df750fa7928447db9ec8/0029b09e0bb15e51001ff11c6bf83f09.part'
p42
sg9
S'0029b09e0bb15e51001ff11c6bf83f09'
p43
sg11
L1048576L
sba(ipart
Part
p44
(dp45
g7
S'1683ff38af35df750fa7928447db9ec8/28a27bf3ca3e2b2e38157eb6bc609a0e.part'
p46
sg9
S'28a27bf3ca3e2b2e38157eb6bc609a0e'
p47
sg11
L1572864L
sba(ipart
Part
p48
(dp49
g7
S'1683ff38af35df750fa7928447db9ec8/fabffd74f296d0c1c3cfcbcb7d43bd66.part'
p50
sg9
S'fabffd74f296d0c1c3cfcbcb7d43bd66'
p51
sg11
L2097152L
sba(ipart
Part
p52
(dp53
g7
S'1683ff38af35df750fa7928447db9ec8/6a81a2f1b03c16207509ec5356dfa684.part'
p54
sg9
S'6a81a2f1b03c16207509ec5356dfa684'
p55
sg11
L2621440L
sba(ipart
Part
p56
(dp57
g7
S'1683ff38af35df750fa7928447db9ec8/61fa31b396272e477d96854786cfa61d.part'
p58
sg9
S'61fa31b396272e477d96854786cfa61d'
p59
sg11
L3145728L
sba(ipart
Part
p60
(dp61
g7
S'1683ff38af35df750fa7928447db9ec8/a364584db2236783e28b93115615a4e0.part'
p62
sg9
S'a364584db2236783e28b93115615a4e0'
p63
sg11
L3369489L
sba(ipart
Part
p64
(dp65
g7
S'1683ff38af35df750fa7928447db9ec8/455a0e1455d2cc455d2c632aed6c94fc.part'
p66
sg9
S'455a0e1455d2cc455d2c632aed6c94fc'
p67
sg11
L524288L
sba(ipart
Part
p68
(dp69
g7
S'1683ff38af35df750fa7928447db9ec8/0029b09e0bb15e51001ff11c6bf83f09.part'
p70
sg9
S'0029b09e0bb15e51001ff11c6bf83f09'
p71
sg11
L1048576L
sba(ipart
Part
p72
(dp73
g7
S'1683ff38af35df750fa7928447db9ec8/28a27bf3ca3e2b2e38157eb6bc609a0e.part'
p74
sg9
S'28a27bf3ca3e2b2e38157eb6bc609a0e'
p75
sg11
L1572864L
sba(ipart
Part
p76
(dp77
g7
S'1683ff38af35df750fa7928447db9ec8/fabffd74f296d0c1c3cfcbcb7d43bd66.part'
p78
sg9
S'fabffd74f296d0c1c3cfcbcb7d43bd66'
p79
sg11
L2097152L
sba(ipart
Part
p80
(dp81
g7
S'1683ff38af35df750fa7928447db9ec8/6a81a2f1b03c16207509ec5356dfa684.part'
p82
sg9
S'6a81a2f1b03c16207509ec5356dfa684'
p83
sg11
L2621440L
sba(ipart
Part
p84
(dp85
g7
S'1683ff38af35df750fa7928447db9ec8/61fa31b396272e477d96854786cfa61d.part'
p86
sg9
S'61fa31b396272e477d96854786cfa61d'
p87
sg11
L3145728L
sba(ipart
Part
p88
(dp89
g7
S'1683ff38af35df750fa7928447db9ec8/a364584db2236783e28b93115615a4e0.part'
p90
sg9
S'a364584db2236783e28b93115615a4e0'
p91
sg11
L3369489L
sba(ipart
Part
p92
(dp93
g7
S'1683ff38af35df750fa7928447db9ec8/455a0e1455d2cc455d2c632aed6c94fc.part'
p94
sg9
S'455a0e1455d2cc455d2c632aed6c94fc'
p95
sg11
L524288L
sba(ipart
Part
p96
(dp97
g7
S'1683ff38af35df750fa7928447db9ec8/0029b09e0bb15e51001ff11c6bf83f09.part'
p98
sg9
S'0029b09e0bb15e51001ff11c6bf83f09'
p99
sg11
L1048576L
sba(ipart
Part
p100
(dp101
g7
S'1683ff38af35df750fa7928447db9ec8/28a27bf3ca3e2b2e38157eb6bc609a0e.part'
p102
sg9
S'28a27bf3ca3e2b2e38157eb6bc609a0e'
p103
sg11
L1572864L
sba(ipart
Part
p104
(dp105
g7
S'1683ff38af35df750fa7928447db9ec8/fabffd74f296d0c1c3cfcbcb7d43bd66.part'
p106
sg9
S'fabffd74f296d0c1c3cfcbcb7d43bd66'
p107
sg11
L2097152L
sba(ipart
Part
p108
(dp109
g7
S'1683ff38af35df750fa7928447db9ec8/6a81a2f1b03c16207509ec5356dfa684.part'
p110
sg9
S'6a81a2f1b03c16207509ec5356dfa684'
p111
sg11
L2621440L
sba(ipart
Part
p112
(dp113
g7
S'1683ff38af35df750fa7928447db9ec8/61fa31b396272e477d96854786cfa61d.part'
p114
sg9
S'61fa31b396272e477d96854786cfa61d'
p115
sg11
L3145728L
sba(ipart
Part
p116
(dp117
g7
S'1683ff38af35df750fa7928447db9ec8/a364584db2236783e28b93115615a4e0.part'
p118
sg9
S'a364584db2236783e28b93115615a4e0'
p119
sg11
L3369489L
sba(ipart
Part
p120
(dp121
g7
S'1683ff38af35df750fa7928447db9ec8/455a0e1455d2cc455d2c632aed6c94fc.part'
p122
sg9
S'455a0e1455d2cc455d2c632aed6c94fc'
p123
sg11
L524288L
sba(ipart
Part
p124
(dp125
g7
S'1683ff38af35df750fa7928447db9ec8/0029b09e0bb15e51001ff11c6bf83f09.part'
p126
sg9
S'0029b09e0bb15e51001ff11c6bf83f09'
p127
sg11
L1048576L
sba(ipart
Part
p128
(dp129
g7
S'1683ff38af35df750fa7928447db9ec8/28a27bf3ca3e2b2e38157eb6bc609a0e.part'
p130
sg9
S'28a27bf3ca3e2b2e38157eb6bc609a0e'
p131
sg11
L1572864L
sba(ipart
Part
p132
(dp133
g7
S'1683ff38af35df750fa7928447db9ec8/fabffd74f296d0c1c3cfcbcb7d43bd66.part'
p134
sg9
S'fabffd74f296d0c1c3cfcbcb7d43bd66'
p135
sg11
L2097152L
sba(ipart
Part
p136
(dp137
g7
S'1683ff38af35df750fa7928447db9ec8/6a81a2f1b03c16207509ec5356dfa684.part'
p138
sg9
S'6a81a2f1b03c16207509ec5356dfa684'
p139
sg11
L2621440L
sba(ipart
Part
p140
(dp141
g7
S'1683ff38af35df750fa7928447db9ec8/61fa31b396272e477d96854786cfa61d.part'
p142
sg9
S'61fa31b396272e477d96854786cfa61d'
p143
sg11
L3145728L
sba(ipart
Part
p144
(dp145
g7
S'1683ff38af35df750fa7928447db9ec8/a364584db2236783e28b93115615a4e0.part'
p146
sg9
S'a364584db2236783e28b93115615a4e0'
p147
sg11
L3369489L
sba(ipart
Part
p148
(dp149
g7
S'1683ff38af35df750fa7928447db9ec8/455a0e1455d2cc455d2c632aed6c94fc.part'
p150
sg9
S'455a0e1455d2cc455d2c632aed6c94fc'
p151
sg11
L524288L
sba(ipart
Part
p152
(dp153
g7
S'1683ff38af35df750fa7928447db9ec8/0029b09e0bb15e51001ff11c6bf83f09.part'
p154
sg9
S'0029b09e0bb15e51001ff11c6bf83f09'
p155
sg11
L1048576L
sba(ipart
Part
p156
(dp157
g7
S'1683ff38af35df750fa7928447db9ec8/28a27bf3ca3e2b2e38157eb6bc609a0e.part'
p158
sg9
S'28a27bf3ca3e2b2e38157eb6bc609a0e'
p159
sg11
L1572864L
sba(ipart
Part
p160
(dp161
g7
S'1683ff38af35df750fa7928447db9ec8/fabffd74f296d0c1c3cfcbcb7d43bd66.part'
p162
sg9
S'fabffd74f296d0c1c3cfcbcb7d43bd66'
p163
sg11
L2097152L
sba(ipart
Part
p164
(dp165
g7
S'1683ff38af35df750fa7928447db9ec8/6a81a2f1b03c16207509ec5356dfa684.part'
p166
sg9
S'6a81a2f1b03c16207509ec5356dfa684'
p167
sg11
L2621440L
sba(ipart
Part
p168
(dp169
g7
S'1683ff38af35df750fa7928447db9ec8/61fa31b396272e477d96854786cfa61d.part'
p170
sg9
S'61fa31b396272e477d96854786cfa61d'
p171
sg11
L3145728L
sba(ipart
Part
p172
(dp173
g7
S'1683ff38af35df750fa7928447db9ec8/a364584db2236783e28b93115615a4e0.part'
p174
sg9
S'a364584db2236783e28b93115615a4e0'
p175
sg11
L3369489L
sba(ipart
Part
p176
(dp177
g7
S'1683ff38af35df750fa7928447db9ec8/455a0e1455d2cc455d2c632aed6c94fc.part'
p178
sg9
S'455a0e1455d2cc455d2c632aed6c94fc'
p179
sg11
L524288L
sba(ipart
Part
p180
(dp181
g7
S'1683ff38af35df750fa7928447db9ec8/0029b09e0bb15e51001ff11c6bf83f09.part'
p182
sg9
S'0029b09e0bb15e51001ff11c6bf83f09'
p183
sg11
L1048576L
sba(ipart
Part
p184
(dp185
g7
S'1683ff38af35df750fa7928447db9ec8/28a27bf3ca3e2b2e38157eb6bc609a0e.part'
p186
sg9
S'28a27bf3ca3e2b2e38157eb6bc609a0e'
p187
sg11
L1572864L
sba(ipart
Part
p188
(dp189
g7
S'1683ff38af35df750fa7928447db9ec8/fabffd74f296d0c1c3cfcbcb7d43bd66.part'
p190
sg9
S'fabffd74f296d0c1c3cfcbcb7d43bd66'
p191
sg11
L2097152L
sba(ipart
Part
p192
(dp193
g7
S'1683ff38af35df750fa7928447db9ec8/6a81a2f1b03c16207509ec5356dfa684.part'
p194
sg9
S'6a81a2f1b03c16207509ec5356dfa684'
p195
sg11
L2621440L
sba(ipart
Part
p196
(dp197
g7
S'1683ff38af35df750fa7928447db9ec8/61fa31b396272e477d96854786cfa61d.part'
p198
sg9
S'61fa31b396272e477d96854786cfa61d'
p199
sg11
L3145728L
sba(ipart
Part
p200
(dp201
g7
S'1683ff38af35df750fa7928447db9ec8/a364584db2236783e28b93115615a4e0.part'
p202
sg9
S'a364584db2236783e28b93115615a4e0'
p203
sg11
L3369489L
sba(ipart
Part
p204
(dp205
g7
S'1683ff38af35df750fa7928447db9ec8/455a0e1455d2cc455d2c632aed6c94fc.part'
p206
sg9
S'455a0e1455d2cc455d2c632aed6c94fc'
p207
sg11
L524288L
sba(ipart
Part
p208
(dp209
g7
S'1683ff38af35df750fa7928447db9ec8/0029b09e0bb15e51001ff11c6bf83f09.part'
p210
sg9
S'0029b09e0bb15e51001ff11c6bf83f09'
p211
sg11
L1048576L
sba(ipart
Part
p212
(dp213
g7
S'1683ff38af35df750fa7928447db9ec8/28a27bf3ca3e2b2e38157eb6bc609a0e.part'
p214
sg9
S'28a27bf3ca3e2b2e38157eb6bc609a0e'
p215
sg11
L1572864L
sba(ipart
Part
p216
(dp217
g7
S'1683ff38af35df750fa7928447db9ec8/fabffd74f296d0c1c3cfcbcb7d43bd66.part'
p218
sg9
S'fabffd74f296d0c1c3cfcbcb7d43bd66'
p219
sg11
L2097152L
sba(ipart
Part
p220
(dp221
g7
S'1683ff38af35df750fa7928447db9ec8/6a81a2f1b03c16207509ec5356dfa684.part'
p222
sg9
S'6a81a2f1b03c16207509ec5356dfa684'
p223
sg11
L2621440L
sba(ipart
Part
p224
(dp225
g7
S'1683ff38af35df750fa7928447db9ec8/61fa31b396272e477d96854786cfa61d.part'
p226
sg9
S'61fa31b396272e477d96854786cfa61d'
p227
sg11
L3145728L
sba(ipart
Part
p228
(dp229
g7
S'1683ff38af35df750fa7928447db9ec8/a364584db2236783e28b93115615a4e0.part'
p230
sg9
S'a364584db2236783e28b93115615a4e0'
p231
sg11
L3369489L
sba(ipart
Part
p232
(dp233
g7
S'1683ff38af35df750fa7928447db9ec8/455a0e1455d2cc455d2c632aed6c94fc.part'
p234
sg9
S'455a0e1455d2cc455d2c632aed6c94fc'
p235
sg11
L524288L
sba(ipart
Part
p236
(dp237
g7
S'1683ff38af35df750fa7928447db9ec8/0029b09e0bb15e51001ff11c6bf83f09.part'
p238
sg9
S'0029b09e0bb15e51001ff11c6bf83f09'
p239
sg11
L1048576L
sba(ipart
Part
p240
(dp241
g7
S'1683ff38af35df750fa7928447db9ec8/28a27bf3ca3e2b2e38157eb6bc609a0e.part'
p242
sg9
S'28a27bf3ca3e2b2e38157eb6bc609a0e'
p243
sg11
L1572864L
sba(ipart
Part
p244
(dp245
g7
S'1683ff38af35df750fa7928447db9ec8/fabffd74f296d0c1c3cfcbcb7d43bd66.part'
p246
sg9
S'fabffd74f296d0c1c3cfcbcb7d43bd66'
p247
sg11
L2097152L
sba(ipart
Part
p248
(dp249
g7
S'1683ff38af35df750fa7928447db9ec8/6a81a2f1b03c16207509ec5356dfa684.part'
p250
sg9
S'6a81a2f1b03c16207509ec5356dfa684'
p251
sg11
L2621440L
sba(ipart
Part
p252
(dp253
g7
S'1683ff38af35df750fa7928447db9ec8/61fa31b396272e477d96854786cfa61d.part'
p254
sg9
S'61fa31b396272e477d96854786cfa61d'
p255
sg11
L3145728L
sba(ipart
Part
p256
(dp257
g7
S'1683ff38af35df750fa7928447db9ec8/a364584db2236783e28b93115615a4e0.part'
p258
sg9
S'a364584db2236783e28b93115615a4e0'
p259
sg11
L3369489L
sba(ipart
Part
p260
(dp261
g7
S'1683ff38af35df750fa7928447db9ec8/455a0e1455d2cc455d2c632aed6c94fc.part'
p262
sg9
S'455a0e1455d2cc455d2c632aed6c94fc'
p263
sg11
L524288L
sba(ipart
Part
p264
(dp265
g7
S'1683ff38af35df750fa7928447db9ec8/0029b09e0bb15e51001ff11c6bf83f09.part'
p266
sg9
S'0029b09e0bb15e51001ff11c6bf83f09'
p267
sg11
L1048576L
sba(ipart
Part
p268
(dp269
g7
S'1683ff38af35df750fa7928447db9ec8/28a27bf3ca3e2b2e38157eb6bc609a0e.part'
p270
sg9
S'28a27bf3ca3e2b2e38157eb6bc609a0e'
p271
sg11
L1572864L
sba(ipart
Part
p272
(dp273
g7
S'1683ff38af35df750fa7928447db9ec8/fabffd74f296d0c1c3cfcbcb7d43bd66.part'
p274
sg9
S'fabffd74f296d0c1c3cfcbcb7d43bd66'
p275
sg11
L2097152L
sba(ipart
Part
p276
(dp277
g7
S'1683ff38af35df750fa7928447db9ec8/6a81a2f1b03c16207509ec5356dfa684.part'
p278
sg9
S'6a81a2f1b03c16207509ec5356dfa684'
p279
sg11
L2621440L
sba(ipart
Part
p280
(dp281
g7
S'1683ff38af35df750fa7928447db9ec8/61fa31b396272e477d96854786cfa61d.part'
p282
sg9
S'61fa31b396272e477d96854786cfa61d'
p283
sg11
L3145728L
sba(ipart
Part
p284
(dp285
g7
S'1683ff38af35df750fa7928447db9ec8/a364584db2236783e28b93115615a4e0.part'
p286
sg9
S'a364584db2236783e28b93115615a4e0'
p287
sg11
L3369489L
sba(ipart
Part
p288
(dp289
g7
S'1683ff38af35df750fa7928447db9ec8/455a0e1455d2cc455d2c632aed6c94fc.part'
p290
sg9
S'455a0e1455d2cc455d2c632aed6c94fc'
p291
sg11
L524288L
sba(ipart
Part
p292
(dp293
g7
S'1683ff38af35df750fa7928447db9ec8/0029b09e0bb15e51001ff11c6bf83f09.part'
p294
sg9
S'0029b09e0bb15e51001ff11c6bf83f09'
p295
sg11
L1048576L
sba(ipart
Part
p296
(dp297
g7
S'1683ff38af35df750fa7928447db9ec8/28a27bf3ca3e2b2e38157eb6bc609a0e.part'
p298
sg9
S'28a27bf3ca3e2b2e38157eb6bc609a0e'
p299
sg11
L1572864L
sba(ipart
Part
p300
(dp301
g7
S'1683ff38af35df750fa7928447db9ec8/fabffd74f296d0c1c3cfcbcb7d43bd66.part'
p302
sg9
S'fabffd74f296d0c1c3cfcbcb7d43bd66'
p303
sg11
L2097152L
sba(ipart
Part
p304
(dp305
g7
S'1683ff38af35df750fa7928447db9ec8/6a81a2f1b03c16207509ec5356dfa684.part'
p306
sg9
S'6a81a2f1b03c16207509ec5356dfa684'
p307
sg11
L2621440L
sba(ipart
Part
p308
(dp309
g7
S'1683ff38af35df750fa7928447db9ec8/61fa31b396272e477d96854786cfa61d.part'
p310
sg9
S'61fa31b396272e477d96854786cfa61d'
p311
sg11
L3145728L
sba(ipart
Part
p312
(dp313
g7
S'1683ff38af35df750fa7928447db9ec8/a364584db2236783e28b93115615a4e0.part'
p314
sg9
S'a364584db2236783e28b93115615a4e0'
p315
sg11
L3369489L
sba(ipart
Part
p316
(dp317
g7
S'1683ff38af35df750fa7928447db9ec8/455a0e1455d2cc455d2c632aed6c94fc.part'
p318
sg9
S'455a0e1455d2cc455d2c632aed6c94fc'
p319
sg11
L524288L
sba(ipart
Part
p320
(dp321
g7
S'1683ff38af35df750fa7928447db9ec8/0029b09e0bb15e51001ff11c6bf83f09.part'
p322
sg9
S'0029b09e0bb15e51001ff11c6bf83f09'
p323
sg11
L1048576L
sba(ipart
Part
p324
(dp325
g7
S'1683ff38af35df750fa7928447db9ec8/28a27bf3ca3e2b2e38157eb6bc609a0e.part'
p326
sg9
S'28a27bf3ca3e2b2e38157eb6bc609a0e'
p327
sg11
L1572864L
sba(ipart
Part
p328
(dp329
g7
S'1683ff38af35df750fa7928447db9ec8/fabffd74f296d0c1c3cfcbcb7d43bd66.part'
p330
sg9
S'fabffd74f296d0c1c3cfcbcb7d43bd66'
p331
sg11
L2097152L
sba(ipart
Part
p332
(dp333
g7
S'1683ff38af35df750fa7928447db9ec8/6a81a2f1b03c16207509ec5356dfa684.part'
p334
sg9
S'6a81a2f1b03c16207509ec5356dfa684'
p335
sg11
L2621440L
sba(ipart
Part
p336
(dp337
g7
S'1683ff38af35df750fa7928447db9ec8/61fa31b396272e477d96854786cfa61d.part'
p338
sg9
S'61fa31b396272e477d96854786cfa61d'
p339
sg11
L3145728L
sba(ipart
Part
p340
(dp341
g7
S'1683ff38af35df750fa7928447db9ec8/a364584db2236783e28b93115615a4e0.part'
p342
sg9
S'a364584db2236783e28b93115615a4e0'
p343
sg11
L3369489L
sba(ipart
Part
p344
(dp345
g7
S'1683ff38af35df750fa7928447db9ec8/455a0e1455d2cc455d2c632aed6c94fc.part'
p346
sg9
S'455a0e1455d2cc455d2c632aed6c94fc'
p347
sg11
L524288L
sba(ipart
Part
p348
(dp349
g7
S'1683ff38af35df750fa7928447db9ec8/0029b09e0bb15e51001ff11c6bf83f09.part'
p350
sg9
S'0029b09e0bb15e51001ff11c6bf83f09'
p351
sg11
L1048576L
sba(ipart
Part
p352
(dp353
g7
S'1683ff38af35df750fa7928447db9ec8/28a27bf3ca3e2b2e38157eb6bc609a0e.part'
p354
sg9
S'28a27bf3ca3e2b2e38157eb6bc609a0e'
p355
sg11
L1572864L
sba(ipart
Part
p356
(dp357
g7
S'1683ff38af35df750fa7928447db9ec8/fabffd74f296d0c1c3cfcbcb7d43bd66.part'
p358
sg9
S'fabffd74f296d0c1c3cfcbcb7d43bd66'
p359
sg11
L2097152L
sba(ipart
Part
p360
(dp361
g7
S'1683ff38af35df750fa7928447db9ec8/6a81a2f1b03c16207509ec5356dfa684.part'
p362
sg9
S'6a81a2f1b03c16207509ec5356dfa684'
p363
sg11
L2621440L
sba(ipart
Part
p364
(dp365
g7
S'1683ff38af35df750fa7928447db9ec8/61fa31b396272e477d96854786cfa61d.part'
p366
sg9
S'61fa31b396272e477d96854786cfa61d'
p367
sg11
L3145728L
sba(ipart
Part
p368
(dp369
g7
S'1683ff38af35df750fa7928447db9ec8/a364584db2236783e28b93115615a4e0.part'
p370
sg9
S'a364584db2236783e28b93115615a4e0'
p371
sg11
L3369489L
sba(ipart
Part
p372
(dp373
g7
S'1683ff38af35df750fa7928447db9ec8/455a0e1455d2cc455d2c632aed6c94fc.part'
p374
sg9
S'455a0e1455d2cc455d2c632aed6c94fc'
p375
sg11
L524288L
sba(ipart
Part
p376
(dp377
g7
S'1683ff38af35df750fa7928447db9ec8/0029b09e0bb15e51001ff11c6bf83f09.part'
p378
sg9
S'0029b09e0bb15e51001ff11c6bf83f09'
p379
sg11
L1048576L
sba(ipart
Part
p380
(dp381
g7
S'1683ff38af35df750fa7928447db9ec8/28a27bf3ca3e2b2e38157eb6bc609a0e.part'
p382
sg9
S'28a27bf3ca3e2b2e38157eb6bc609a0e'
p383
sg11
L1572864L
sba(ipart
Part
p384
(dp385
g7
S'1683ff38af35df750fa7928447db9ec8/fabffd74f296d0c1c3cfcbcb7d43bd66.part'
p386
sg9
S'fabffd74f296d0c1c3cfcbcb7d43bd66'
p387
sg11
L2097152L
sba(ipart
Part
p388
(dp389
g7
S'1683ff38af35df750fa7928447db9ec8/6a81a2f1b03c16207509ec5356dfa684.part'
p390
sg9
S'6a81a2f1b03c16207509ec5356dfa684'
p391
sg11
L2621440L
sba(ipart
Part
p392
(dp393
g7
S'1683ff38af35df750fa7928447db9ec8/61fa31b396272e477d96854786cfa61d.part'
p394
sg9
S'61fa31b396272e477d96854786cfa61d'
p395
sg11
L3145728L
sba(ipart
Part
p396
(dp397
g7
S'1683ff38af35df750fa7928447db9ec8/a364584db2236783e28b93115615a4e0.part'
p398
sg9
S'a364584db2236783e28b93115615a4e0'
p399
sg11
L3369489L
sba(ipart
Part
p400
(dp401
g7
S'1683ff38af35df750fa7928447db9ec8/455a0e1455d2cc455d2c632aed6c94fc.part'
p402
sg9
S'455a0e1455d2cc455d2c632aed6c94fc'
p403
sg11
L524288L
sba(ipart
Part
p404
(dp405
g7
S'1683ff38af35df750fa7928447db9ec8/0029b09e0bb15e51001ff11c6bf83f09.part'
p406
sg9
S'0029b09e0bb15e51001ff11c6bf83f09'
p407
sg11
L1048576L
sba(ipart
Part
p408
(dp409
g7
S'1683ff38af35df750fa7928447db9ec8/28a27bf3ca3e2b2e38157eb6bc609a0e.part'
p410
sg9
S'28a27bf3ca3e2b2e38157eb6bc609a0e'
p411
sg11
L1572864L
sba(ipart
Part
p412
(dp413
g7
S'1683ff38af35df750fa7928447db9ec8/fabffd74f296d0c1c3cfcbcb7d43bd66.part'
p414
sg9
S'fabffd74f296d0c1c3cfcbcb7d43bd66'
p415
sg11
L2097152L
sba(ipart
Part
p416
(dp417
g7
S'1683ff38af35df750fa7928447db9ec8/6a81a2f1b03c16207509ec5356dfa684.part'
p418
sg9
S'6a81a2f1b03c16207509ec5356dfa684'
p419
sg11
L2621440L
sba(ipart
Part
p420
(dp421
g7
S'1683ff38af35df750fa7928447db9ec8/61fa31b396272e477d96854786cfa61d.part'
p422
sg9
S'61fa31b396272e477d96854786cfa61d'
p423
sg11
L3145728L
sba(ipart
Part
p424
(dp425
g7
S'1683ff38af35df750fa7928447db9ec8/a364584db2236783e28b93115615a4e0.part'
p426
sg9
S'a364584db2236783e28b93115615a4e0'
p427
sg11
L3369489L
sba(ipart
Part
p428
(dp429
g7
S'1683ff38af35df750fa7928447db9ec8/455a0e1455d2cc455d2c632aed6c94fc.part'
p430
sg9
S'455a0e1455d2cc455d2c632aed6c94fc'
p431
sg11
L524288L
sba(ipart
Part
p432
(dp433
g7
S'1683ff38af35df750fa7928447db9ec8/0029b09e0bb15e51001ff11c6bf83f09.part'
p434
sg9
S'0029b09e0bb15e51001ff11c6bf83f09'
p435
sg11
L1048576L
sba(ipart
Part
p436
(dp437
g7
S'1683ff38af35df750fa7928447db9ec8/28a27bf3ca3e2b2e38157eb6bc609a0e.part'
p438
sg9
S'28a27bf3ca3e2b2e38157eb6bc609a0e'
p439
sg11
L1572864L
sba(ipart
Part
p440
(dp441
g7
S'1683ff38af35df750fa7928447db9ec8/fabffd74f296d0c1c3cfcbcb7d43bd66.part'
p442
sg9
S'fabffd74f296d0c1c3cfcbcb7d43bd66'
p443
sg11
L2097152L
sba(ipart
Part
p444
(dp445
g7
S'1683ff38af35df750fa7928447db9ec8/6a81a2f1b03c16207509ec5356dfa684.part'
p446
sg9
S'6a81a2f1b03c16207509ec5356dfa684'
p447
sg11
L2621440L
sba(ipart
Part
p448
(dp449
g7
S'1683ff38af35df750fa7928447db9ec8/61fa31b396272e477d96854786cfa61d.part'
p450
sg9
S'61fa31b396272e477d96854786cfa61d'
p451
sg11
L3145728L
sba(ipart
Part
p452
(dp453
g7
S'1683ff38af35df750fa7928447db9ec8/a364584db2236783e28b93115615a4e0.part'
p454
sg9
S'a364584db2236783e28b93115615a4e0'
p455
sg11
L3369489L
sba(ipart
Part
p456
(dp457
g7
S'1683ff38af35df750fa7928447db9ec8/455a0e1455d2cc455d2c632aed6c94fc.part'
p458
sg9
S'455a0e1455d2cc455d2c632aed6c94fc'
p459
sg11
L524288L
sba(ipart
Part
p460
(dp461
g7
S'1683ff38af35df750fa7928447db9ec8/0029b09e0bb15e51001ff11c6bf83f09.part'
p462
sg9
S'0029b09e0bb15e51001ff11c6bf83f09'
p463
sg11
L1048576L
sba(ipart
Part
p464
(dp465
g7
S'1683ff38af35df750fa7928447db9ec8/28a27bf3ca3e2b2e38157eb6bc609a0e.part'
p466
sg9
S'28a27bf3ca3e2b2e38157eb6bc609a0e'
p467
sg11
L1572864L
sba(ipart
Part
p468
(dp469
g7
S'1683ff38af35df750fa7928447db9ec8/fabffd74f296d0c1c3cfcbcb7d43bd66.part'
p470
sg9
S'fabffd74f296d0c1c3cfcbcb7d43bd66'
p471
sg11
L2097152L
sba(ipart
Part
p472
(dp473
g7
S'1683ff38af35df750fa7928447db9ec8/6a81a2f1b03c16207509ec5356dfa684.part'
p474
sg9
S'6a81a2f1b03c16207509ec5356dfa684'
p475
sg11
L2621440L
sba(ipart
Part
p476
(dp477
g7
S'1683ff38af35df750fa7928447db9ec8/61fa31b396272e477d96854786cfa61d.part'
p478
sg9
S'61fa31b396272e477d96854786cfa61d'
p479
sg11
L3145728L
sba(ipart
Part
p480
(dp481
g7
S'1683ff38af35df750fa7928447db9ec8/a364584db2236783e28b93115615a4e0.part'
p482
sg9
S'a364584db2236783e28b93115615a4e0'
p483
sg11
L3369489L
sba(ipart
Part
p484
(dp485
g7
S'1683ff38af35df750fa7928447db9ec8/455a0e1455d2cc455d2c632aed6c94fc.part'
p486
sg9
S'455a0e1455d2cc455d2c632aed6c94fc'
p487
sg11
L524288L
sba(ipart
Part
p488
(dp489
g7
S'1683ff38af35df750fa7928447db9ec8/0029b09e0bb15e51001ff11c6bf83f09.part'
p490
sg9
S'0029b09e0bb15e51001ff11c6bf83f09'
p491
sg11
L1048576L
sba(ipart
Part
p492
(dp493
g7
S'1683ff38af35df750fa7928447db9ec8/28a27bf3ca3e2b2e38157eb6bc609a0e.part'
p494
sg9
S'28a27bf3ca3e2b2e38157eb6bc609a0e'
p495
sg11
L1572864L
sba(ipart
Part
p496
(dp497
g7
S'1683ff38af35df750fa7928447db9ec8/fabffd74f296d0c1c3cfcbcb7d43bd66.part'
p498
sg9
S'fabffd74f296d0c1c3cfcbcb7d43bd66'
p499
sg11
L2097152L
sba(ipart
Part
p500
(dp501
g7
S'1683ff38af35df750fa7928447db9ec8/6a81a2f1b03c16207509ec5356dfa684.part'
p502
sg9
S'6a81a2f1b03c16207509ec5356dfa684'
p503
sg11
L2621440L
sba(ipart
Part
p504
(dp505
g7
S'1683ff38af35df750fa7928447db9ec8/61fa31b396272e477d96854786cfa61d.part'
p506
sg9
S'61fa31b396272e477d96854786cfa61d'
p507
sg11
L3145728L
sba(ipart
Part
p508
(dp509
g7
S'1683ff38af35df750fa7928447db9ec8/a364584db2236783e28b93115615a4e0.part'
p510
sg9
S'a364584db2236783e28b93115615a4e0'
p511
sg11
L3369489L
sba(ipart
Part
p512
(dp513
g7
S'1683ff38af35df750fa7928447db9ec8/455a0e1455d2cc455d2c632aed6c94fc.part'
p514
sg9
S'455a0e1455d2cc455d2c632aed6c94fc'
p515
sg11
L524288L
sba(ipart
Part
p516
(dp517
g7
S'1683ff38af35df750fa7928447db9ec8/0029b09e0bb15e51001ff11c6bf83f09.part'
p518
sg9
S'0029b09e0bb15e51001ff11c6bf83f09'
p519
sg11
L1048576L
sba(ipart
Part
p520
(dp521
g7
S'1683ff38af35df750fa7928447db9ec8/28a27bf3ca3e2b2e38157eb6bc609a0e.part'
p522
sg9
S'28a27bf3ca3e2b2e38157eb6bc609a0e'
p523
sg11
L1572864L
sba(ipart
Part
p524
(dp525
g7
S'1683ff38af35df750fa7928447db9ec8/fabffd74f296d0c1c3cfcbcb7d43bd66.part'
p526
sg9
S'fabffd74f296d0c1c3cfcbcb7d43bd66'
p527
sg11
L2097152L
sba(ipart
Part
p528
(dp529
g7
S'1683ff38af35df750fa7928447db9ec8/6a81a2f1b03c16207509ec5356dfa684.part'
p530
sg9
S'6a81a2f1b03c16207509ec5356dfa684'
p531
sg11
L2621440L
sba(ipart
Part
p532
(dp533
g7
S'1683ff38af35df750fa7928447db9ec8/61fa31b396272e477d96854786cfa61d.part'
p534
sg9
S'61fa31b396272e477d96854786cfa61d'
p535
sg11
L3145728L
sba(ipart
Part
p536
(dp537
g7
S'1683ff38af35df750fa7928447db9ec8/a364584db2236783e28b93115615a4e0.part'
p538
sg9
S'a364584db2236783e28b93115615a4e0'
p539
sg11
L3369489L
sba(ipart
Part
p540
(dp541
g7
S'1683ff38af35df750fa7928447db9ec8/455a0e1455d2cc455d2c632aed6c94fc.part'
p542
sg9
S'455a0e1455d2cc455d2c632aed6c94fc'
p543
sg11
L524288L
sba(ipart
Part
p544
(dp545
g7
S'1683ff38af35df750fa7928447db9ec8/0029b09e0bb15e51001ff11c6bf83f09.part'
p546
sg9
S'0029b09e0bb15e51001ff11c6bf83f09'
p547
sg11
L1048576L
sba(ipart
Part
p548
(dp549
g7
S'1683ff38af35df750fa7928447db9ec8/28a27bf3ca3e2b2e38157eb6bc609a0e.part'
p550
sg9
S'28a27bf3ca3e2b2e38157eb6bc609a0e'
p551
sg11
L1572864L
sba(ipart
Part
p552
(dp553
g7
S'1683ff38af35df750fa7928447db9ec8/fabffd74f296d0c1c3cfcbcb7d43bd66.part'
p554
sg9
S'fabffd74f296d0c1c3cfcbcb7d43bd66'
p555
sg11
L2097152L
sba(ipart
Part
p556
(dp557
g7
S'1683ff38af35df750fa7928447db9ec8/6a81a2f1b03c16207509ec5356dfa684.part'
p558
sg9
S'6a81a2f1b03c16207509ec5356dfa684'
p559
sg11
L2621440L
sba(ipart
Part
p560
(dp561
g7
S'1683ff38af35df750fa7928447db9ec8/61fa31b396272e477d96854786cfa61d.part'
p562
sg9
S'61fa31b396272e477d96854786cfa61d'
p563
sg11
L3145728L
sba(ipart
Part
p564
(dp565
g7
S'1683ff38af35df750fa7928447db9ec8/a364584db2236783e28b93115615a4e0.part'
p566
sg9
S'a364584db2236783e28b93115615a4e0'
p567
sg11
L3369489L
sba(ipart
Part
p568
(dp569
g7
S'1683ff38af35df750fa7928447db9ec8/455a0e1455d2cc455d2c632aed6c94fc.part'
p570
sg9
S'455a0e1455d2cc455d2c632aed6c94fc'
p571
sg11
L524288L
sba(ipart
Part
p572
(dp573
g7
S'1683ff38af35df750fa7928447db9ec8/0029b09e0bb15e51001ff11c6bf83f09.part'
p574
sg9
S'0029b09e0bb15e51001ff11c6bf83f09'
p575
sg11
L1048576L
sba(ipart
Part
p576
(dp577
g7
S'1683ff38af35df750fa7928447db9ec8/28a27bf3ca3e2b2e38157eb6bc609a0e.part'
p578
sg9
S'28a27bf3ca3e2b2e38157eb6bc609a0e'
p579
sg11
L1572864L
sba(ipart
Part
p580
(dp581
g7
S'1683ff38af35df750fa7928447db9ec8/fabffd74f296d0c1c3cfcbcb7d43bd66.part'
p582
sg9
S'fabffd74f296d0c1c3cfcbcb7d43bd66'
p583
sg11
L2097152L
sba(ipart
Part
p584
(dp585
g7
S'1683ff38af35df750fa7928447db9ec8/6a81a2f1b03c16207509ec5356dfa684.part'
p586
sg9
S'6a81a2f1b03c16207509ec5356dfa684'
p587
sg11
L2621440L
sba(ipart
Part
p588
(dp589
g7
S'1683ff38af35df750fa7928447db9ec8/61fa31b396272e477d96854786cfa61d.part'
p590
sg9
S'61fa31b396272e477d96854786cfa61d'
p591
sg11
L3145728L
sba(ipart
Part
p592
(dp593
g7
S'1683ff38af35df750fa7928447db9ec8/a364584db2236783e28b93115615a4e0.part'
p594
sg9
S'a364584db2236783e28b93115615a4e0'
p595
sg11
L3369489L
sba(ipart
Part
p596
(dp597
g7
S'1683ff38af35df750fa7928447db9ec8/455a0e1455d2cc455d2c632aed6c94fc.part'
p598
sg9
S'455a0e1455d2cc455d2c632aed6c94fc'
p599
sg11
L524288L
sba(ipart
Part
p600
(dp601
g7
S'1683ff38af35df750fa7928447db9ec8/0029b09e0bb15e51001ff11c6bf83f09.part'
p602
sg9
S'0029b09e0bb15e51001ff11c6bf83f09'
p603
sg11
L1048576L
sba(ipart
Part
p604
(dp605
g7
S'1683ff38af35df750fa7928447db9ec8/28a27bf3ca3e2b2e38157eb6bc609a0e.part'
p606
sg9
S'28a27bf3ca3e2b2e38157eb6bc609a0e'
p607
sg11
L1572864L
sba(ipart
Part
p608
(dp609
g7
S'1683ff38af35df750fa7928447db9ec8/fabffd74f296d0c1c3cfcbcb7d43bd66.part'
p610
sg9
S'fabffd74f296d0c1c3cfcbcb7d43bd66'
p611
sg11
L2097152L
sba(ipart
Part
p612
(dp613
g7
S'1683ff38af35df750fa7928447db9ec8/6a81a2f1b03c16207509ec5356dfa684.part'
p614
sg9
S'6a81a2f1b03c16207509ec5356dfa684'
p615
sg11
L2621440L
sba(ipart
Part
p616
(dp617
g7
S'1683ff38af35df750fa7928447db9ec8/61fa31b396272e477d96854786cfa61d.part'
p618
sg9
S'61fa31b396272e477d96854786cfa61d'
p619
sg11
L3145728L
sba(ipart
Part
p620
(dp621
g7
S'1683ff38af35df750fa7928447db9ec8/a364584db2236783e28b93115615a4e0.part'
p622
sg9
S'a364584db2236783e28b93115615a4e0'
p623
sg11
L3369489L
sba(ipart
Part
p624
(dp625
g7
S'1683ff38af35df750fa7928447db9ec8/455a0e1455d2cc455d2c632aed6c94fc.part'
p626
sg9
S'455a0e1455d2cc455d2c632aed6c94fc'
p627
sg11
L524288L
sba(ipart
Part
p628
(dp629
g7
S'1683ff38af35df750fa7928447db9ec8/0029b09e0bb15e51001ff11c6bf83f09.part'
p630
sg9
S'0029b09e0bb15e51001ff11c6bf83f09'
p631
sg11
L1048576L
sba(ipart
Part
p632
(dp633
g7
S'1683ff38af35df750fa7928447db9ec8/28a27bf3ca3e2b2e38157eb6bc609a0e.part'
p634
sg9
S'28a27bf3ca3e2b2e38157eb6bc609a0e'
p635
sg11
L1572864L
sba(ipart
Part
p636
(dp637
g7
S'1683ff38af35df750fa7928447db9ec8/fabffd74f296d0c1c3cfcbcb7d43bd66.part'
p638
sg9
S'fabffd74f296d0c1c3cfcbcb7d43bd66'
p639
sg11
L2097152L
sba(ipart
Part
p640
(dp641
g7
S'1683ff38af35df750fa7928447db9ec8/6a81a2f1b03c16207509ec5356dfa684.part'
p642
sg9
S'6a81a2f1b03c16207509ec5356dfa684'
p643
sg11
L2621440L
sba(ipart
Part
p644
(dp645
g7
S'1683ff38af35df750fa7928447db9ec8/61fa31b396272e477d96854786cfa61d.part'
p646
sg9
S'61fa31b396272e477d96854786cfa61d'
p647
sg11
L3145728L
sba(ipart
Part
p648
(dp649
g7
S'1683ff38af35df750fa7928447db9ec8/a364584db2236783e28b93115615a4e0.part'
p650
sg9
S'a364584db2236783e28b93115615a4e0'
p651
sg11
L3369489L
sba(ipart
Part
p652
(dp653
g7
S'1683ff38af35df750fa7928447db9ec8/455a0e1455d2cc455d2c632aed6c94fc.part'
p654
sg9
S'455a0e1455d2cc455d2c632aed6c94fc'
p655
sg11
L524288L
sba(ipart
Part
p656
(dp657
g7
S'1683ff38af35df750fa7928447db9ec8/0029b09e0bb15e51001ff11c6bf83f09.part'
p658
sg9
S'0029b09e0bb15e51001ff11c6bf83f09'
p659
sg11
L1048576L
sba(ipart
Part
p660
(dp661
g7
S'1683ff38af35df750fa7928447db9ec8/28a27bf3ca3e2b2e38157eb6bc609a0e.part'
p662
sg9
S'28a27bf3ca3e2b2e38157eb6bc609a0e'
p663
sg11
L1572864L
sba(ipart
Part
p664
(dp665
g7
S'1683ff38af35df750fa7928447db9ec8/fabffd74f296d0c1c3cfcbcb7d43bd66.part'
p666
sg9
S'fabffd74f296d0c1c3cfcbcb7d43bd66'
p667
sg11
L2097152L
sba(ipart
Part
p668
(dp669
g7
S'1683ff38af35df750fa7928447db9ec8/6a81a2f1b03c16207509ec5356dfa684.part'
p670
sg9
S'6a81a2f1b03c16207509ec5356dfa684'
p671
sg11
L2621440L
sba(ipart
Part
p672
(dp673
g7
S'1683ff38af35df750fa7928447db9ec8/61fa31b396272e477d96854786cfa61d.part'
p674
sg9
S'61fa31b396272e477d96854786cfa61d'
p675
sg11
L3145728L
sba(ipart
Part
p676
(dp677
g7
S'1683ff38af35df750fa7928447db9ec8/a364584db2236783e28b93115615a4e0.part'
p678
sg9
S'a364584db2236783e28b93115615a4e0'
p679
sg11
L3369489L
sba(ipart
Part
p680
(dp681
g7
S'1683ff38af35df750fa7928447db9ec8/455a0e1455d2cc455d2c632aed6c94fc.part'
p682
sg9
S'455a0e1455d2cc455d2c632aed6c94fc'
p683
sg11
L524288L
sba(ipart
Part
p684
(dp685
g7
S'1683ff38af35df750fa7928447db9ec8/0029b09e0bb15e51001ff11c6bf83f09.part'
p686
sg9
S'0029b09e0bb15e51001ff11c6bf83f09'
p687
sg11
L1048576L
sba(ipart
Part
p688
(dp689
g7
S'1683ff38af35df750fa7928447db9ec8/28a27bf3ca3e2b2e38157eb6bc609a0e.part'
p690
sg9
S'28a27bf3ca3e2b2e38157eb6bc609a0e'
p691
sg11
L1572864L
sba(ipart
Part
p692
(dp693
g7
S'1683ff38af35df750fa7928447db9ec8/fabffd74f296d0c1c3cfcbcb7d43bd66.part'
p694
sg9
S'fabffd74f296d0c1c3cfcbcb7d43bd66'
p695
sg11
L2097152L
sba(ipart
Part
p696
(dp697
g7
S'1683ff38af35df750fa7928447db9ec8/6a81a2f1b03c16207509ec5356dfa684.part'
p698
sg9
S'6a81a2f1b03c16207509ec5356dfa684'
p699
sg11
L2621440L
sba(ipart
Part
p700
(dp701
g7
S'1683ff38af35df750fa7928447db9ec8/61fa31b396272e477d96854786cfa61d.part'
p702
sg9
S'61fa31b396272e477d96854786cfa61d'
p703
sg11
L3145728L
sba(ipart
Part
p704
(dp705
g7
S'1683ff38af35df750fa7928447db9ec8/a364584db2236783e28b93115615a4e0.part'
p706
sg9
S'a364584db2236783e28b93115615a4e0'
p707
sg11
L3369489L
sba(ipart
Part
p708
(dp709
g7
S'1683ff38af35df750fa7928447db9ec8/455a0e1455d2cc455d2c632aed6c94fc.part'
p710
sg9
S'455a0e1455d2cc455d2c632aed6c94fc'
p711
sg11
L524288L
sba(ipart
Part
p712
(dp713
g7
S'1683ff38af35df750fa7928447db9ec8/0029b09e0bb15e51001ff11c6bf83f09.part'
p714
sg9
S'0029b09e0bb15e51001ff11c6bf83f09'
p715
sg11
L1048576L
sba(ipart
Part
p716
(dp717
g7
S'1683ff38af35df750fa7928447db9ec8/28a27bf3ca3e2b2e38157eb6bc609a0e.part'
p718
sg9
S'28a27bf3ca3e2b2e38157eb6bc609a0e'
p719
sg11
L1572864L
sba(ipart
Part
p720
(dp721
g7
S'1683ff38af35df750fa7928447db9ec8/fabffd74f296d0c1c3cfcbcb7d43bd66.part'
p722
sg9
S'fabffd74f296d0c1c3cfcbcb7d43bd66'
p723
sg11
L2097152L
sba(ipart
Part
p724
(dp725
g7
S'1683ff38af35df750fa7928447db9ec8/6a81a2f1b03c16207509ec5356dfa684.part'
p726
sg9
S'6a81a2f1b03c16207509ec5356dfa684'
p727
sg11
L2621440L
sba(ipart
Part
p728
(dp729
g7
S'1683ff38af35df750fa7928447db9ec8/61fa31b396272e477d96854786cfa61d.part'
p730
sg9
S'61fa31b396272e477d96854786cfa61d'
p731
sg11
L3145728L
sba(ipart
Part
p732
(dp733
g7
S'1683ff38af35df750fa7928447db9ec8/a364584db2236783e28b93115615a4e0.part'
p734
sg9
S'a364584db2236783e28b93115615a4e0'
p735
sg11
L3369489L
sba(ipart
Part
p736
(dp737
g7
S'1683ff38af35df750fa7928447db9ec8/455a0e1455d2cc455d2c632aed6c94fc.part'
p738
sg9
S'455a0e1455d2cc455d2c632aed6c94fc'
p739
sg11
L524288L
sba(ipart
Part
p740
(dp741
g7
S'1683ff38af35df750fa7928447db9ec8/0029b09e0bb15e51001ff11c6bf83f09.part'
p742
sg9
S'0029b09e0bb15e51001ff11c6bf83f09'
p743
sg11
L1048576L
sba(ipart
Part
p744
(dp745
g7
S'1683ff38af35df750fa7928447db9ec8/28a27bf3ca3e2b2e38157eb6bc609a0e.part'
p746
sg9
S'28a27bf3ca3e2b2e38157eb6bc609a0e'
p747
sg11
L1572864L
sba(ipart
Part
p748
(dp749
g7
S'1683ff38af35df750fa7928447db9ec8/fabffd74f296d0c1c3cfcbcb7d43bd66.part'
p750
sg9
S'fabffd74f296d0c1c3cfcbcb7d43bd66'
p751
sg11
L2097152L
sba(ipart
Part
p752
(dp753
g7
S'1683ff38af35df750fa7928447db9ec8/6a81a2f1b03c16207509ec5356dfa684.part'
p754
sg9
S'6a81a2f1b03c16207509ec5356dfa684'
p755
sg11
L2621440L
sba(ipart
Part
p756
(dp757
g7
S'1683ff38af35df750fa7928447db9ec8/61fa31b396272e477d96854786cfa61d.part'
p758
sg9
S'61fa31b396272e477d96854786cfa61d'
p759
sg11
L3145728L
sba(ipart
Part
p760
(dp761
g7
S'1683ff38af35df750fa7928447db9ec8/a364584db2236783e28b93115615a4e0.part'
p762
sg9
S'a364584db2236783e28b93115615a4e0'
p763
sg11
L3369489L
sba(ipart
Part
p764
(dp765
g7
S'1683ff38af35df750fa7928447db9ec8/455a0e1455d2cc455d2c632aed6c94fc.part'
p766
sg9
S'455a0e1455d2cc455d2c632aed6c94fc'
p767
sg11
L524288L
sba(ipart
Part
p768
(dp769
g7
S'1683ff38af35df750fa7928447db9ec8/0029b09e0bb15e51001ff11c6bf83f09.part'
p770
sg9
S'0029b09e0bb15e51001ff11c6bf83f09'
p771
sg11
L1048576L
sba(ipart
Part
p772
(dp773
g7
S'1683ff38af35df750fa7928447db9ec8/28a27bf3ca3e2b2e38157eb6bc609a0e.part'
p774
sg9
S'28a27bf3ca3e2b2e38157eb6bc609a0e'
p775
sg11
L1572864L
sba(ipart
Part
p776
(dp777
g7
S'1683ff38af35df750fa7928447db9ec8/fabffd74f296d0c1c3cfcbcb7d43bd66.part'
p778
sg9
S'fabffd74f296d0c1c3cfcbcb7d43bd66'
p779
sg11
L2097152L
sba(ipart
Part
p780
(dp781
g7
S'1683ff38af35df750fa7928447db9ec8/6a81a2f1b03c16207509ec5356dfa684.part'
p782
sg9
S'6a81a2f1b03c16207509ec5356dfa684'
p783
sg11
L2621440L
sba(ipart
Part
p784
(dp785
g7
S'1683ff38af35df750fa7928447db9ec8/61fa31b396272e477d96854786cfa61d.part'
p786
sg9
S'61fa31b396272e477d96854786cfa61d'
p787
sg11
L3145728L
sba(ipart
Part
p788
(dp789
g7
S'1683ff38af35df750fa7928447db9ec8/a364584db2236783e28b93115615a4e0.part'
p790
sg9
S'a364584db2236783e28b93115615a4e0'
p791
sg11
L3369489L
sba(ipart
Part
p792
(dp793
g7
S'1683ff38af35df750fa7928447db9ec8/455a0e1455d2cc455d2c632aed6c94fc.part'
p794
sg9
S'455a0e1455d2cc455d2c632aed6c94fc'
p795
sg11
L524288L
sba(ipart
Part
p796
(dp797
g7
S'1683ff38af35df750fa7928447db9ec8/0029b09e0bb15e51001ff11c6bf83f09.part'
p798
sg9
S'0029b09e0bb15e51001ff11c6bf83f09'
p799
sg11
L1048576L
sba(ipart
Part
p800
(dp801
g7
S'1683ff38af35df750fa7928447db9ec8/28a27bf3ca3e2b2e38157eb6bc609a0e.part'
p802
sg9
S'28a27bf3ca3e2b2e38157eb6bc609a0e'
p803
sg11
L1572864L
sba(ipart
Part
p804
(dp805
g7
S'1683ff38af35df750fa7928447db9ec8/fabffd74f296d0c1c3cfcbcb7d43bd66.part'
p806
sg9
S'fabffd74f296d0c1c3cfcbcb7d43bd66'
p807
sg11
L2097152L
sba(ipart
Part
p808
(dp809
g7
S'1683ff38af35df750fa7928447db9ec8/6a81a2f1b03c16207509ec5356dfa684.part'
p810
sg9
S'6a81a2f1b03c16207509ec5356dfa684'
p811
sg11
L2621440L
sba(ipart
Part
p812
(dp813
g7
S'1683ff38af35df750fa7928447db9ec8/61fa31b396272e477d96854786cfa61d.part'
p814
sg9
S'61fa31b396272e477d96854786cfa61d'
p815
sg11
L3145728L
sba(ipart
Part
p816
(dp817
g7
S'1683ff38af35df750fa7928447db9ec8/a364584db2236783e28b93115615a4e0.part'
p818
sg9
S'a364584db2236783e28b93115615a4e0'
p819
sg11
L3369489L
sba(ipart
Part
p820
(dp821
g7
S'1683ff38af35df750fa7928447db9ec8/455a0e1455d2cc455d2c632aed6c94fc.part'
p822
sg9
S'455a0e1455d2cc455d2c632aed6c94fc'
p823
sg11
L524288L
sba(ipart
Part
p824
(dp825
g7
S'1683ff38af35df750fa7928447db9ec8/0029b09e0bb15e51001ff11c6bf83f09.part'
p826
sg9
S'0029b09e0bb15e51001ff11c6bf83f09'
p827
sg11
L1048576L
sba(ipart
Part
p828
(dp829
g7
S'1683ff38af35df750fa7928447db9ec8/28a27bf3ca3e2b2e38157eb6bc609a0e.part'
p830
sg9
S'28a27bf3ca3e2b2e38157eb6bc609a0e'
p831
sg11
L1572864L
sba(ipart
Part
p832
(dp833
g7
S'1683ff38af35df750fa7928447db9ec8/fabffd74f296d0c1c3cfcbcb7d43bd66.part'
p834
sg9
S'fabffd74f296d0c1c3cfcbcb7d43bd66'
p835
sg11
L2097152L
sba(ipart
Part
p836
(dp837
g7
S'1683ff38af35df750fa7928447db9ec8/6a81a2f1b03c16207509ec5356dfa684.part'
p838
sg9
S'6a81a2f1b03c16207509ec5356dfa684'
p839
sg11
L2621440L
sba(ipart
Part
p840
(dp841
g7
S'1683ff38af35df750fa7928447db9ec8/61fa31b396272e477d96854786cfa61d.part'
p842
sg9
S'61fa31b396272e477d96854786cfa61d'
p843
sg11
L3145728L
sba(ipart
Part
p844
(dp845
g7
S'1683ff38af35df750fa7928447db9ec8/a364584db2236783e28b93115615a4e0.part'
p846
sg9
S'a364584db2236783e28b93115615a4e0'
p847
sg11
L3369489L
sbasS'hash'
p848
S'1683ff38af35df750fa7928447db9ec8'
p849
s.